(dp1
S'output'
p2
S"<type 'exceptions.TypeError'> int() argument must be a string or a number, not 'Rows'"
p3
sS'layer'
p4
S'/home/marian/web2py/applications/PyDoctor/controllers/default.py'
p5
sS'code'
p6
S'# -*- coding: utf-8 -*-\n# this file is released under public domain and you can use without limitations\n__author__=u"Mar\xc3\xada Andrea Vignau <mavignau@gmail.com>"\n#########################################################################\n## This is a sample controller\n## - index is the default action of any application\n## - user is required for authentication and authorization\n## - download is for downloading files uploaded in the db (does streaming)\n#########################################################################\n\n\'\'\'export=dict(csv_with_hidden_cols=(ExporterCSV, \'CSV (columnas ocultas)\'),\ncsv=(ExporterCSV, \'CSV\'),\nxml=(ExporterXML, \'XML\'),\nhtml=(ExporterHTML, \'HTML\'),\ntsv_with_hidden_cols=(ExporterTSV, \'TSV (Compatible con Excel, columnas ocultas)\'),\ntsv=(ExporterTSV, \'TSV (Compatible con excel)\'))\'\'\'\n\nmyexport=dict(csv_with_hidden_cols=False,\n            csv=False,\n            xml=False,\n            html=False,\n            tsv_with_hidden_cols=False,\n            tsv=False,\n            json=False)\n\n\ndef index():\n    """\n    example action using the internationalization operator T and flash\n    rendered by views/default/index.html or views/generic.html\n\n    if you need a simple wiki simply replace the two lines below with:\n    return auth.wiki()\n    """\n    response.flash = T("Bienvenido a pyDoctor")\n    response.title = T("pyDoctor")\n    content=T(u\'Sistema para abogados y estudios jur\xc3\xaddicos\')\n    modules=None\n    features=None\n    if auth.user:\n        message=T("Bienvenido a pyDoctor, %s %s")%(auth.user.first_name,auth.user.last_name)\n        modules=[{\'url\':URL(\'default\',\'admin_expedientes\'),\'img\':\'expedientes.png\',\'alt\':T(\'Administraci\xc3\xb3n de expedientes\')},\n                 {\'url\':URL(\'default\',\'calendar\'),\'img\':\'calendario.png\',\'alt\':T(\'Calendario de vencimientos\')},\n                 {\'url\':URL(\'default\',\'admin_personas\'),\'img\':\'personas.png\',\'alt\':T(\'Contactos\')},\n                 {\'url\':URL(\'default\',\'admin_juzgados\'),\'img\':\'juzgados.png\',\'alt\':T(\'Oficinas judiciales\')}\n        ]\n    else:\n        message=T(\'\xc2\xa1Bienvenido! Pru\xc3\xa9belo ya mismo.\')\n        features=[{\'img\':\'feature-easy.png\',\'alt\':T(\'Intuitivo y muy f\xc3\xa1cil de usar, Ud. est\xc3\xa1ra trabajando en sus expedientes inmediatamente. \')},\n                 {\'img\':\'feature-responsive.png\',\'alt\':T(\'Acceso total desde cualquier parte con conexi\xc3\xb3n Internet. Podr\xc3\xa1 acceder desde todos sus dispositivos, computadoras o m\xc3\xb3viles\')},\n                 {\'img\':\'feature-secure.png\',\'alt\':T(\'Tendr\xc3\xa1 sus datos en la seguridad absoluta de nuestros servidores. \xc2\xa1Olv\xc3\xaddese de las copias de seguridad!\')},\n                 {\'img\':\'feature-fast.png\',\'alt\':T(\'R\xc3\xa1pido de usar y veloz para empezar. Ah\xc3\xb3rrese el tiempo para instalar y configurar su software. \xc3\x9aselo ya mismo\')}\n        ]\n    return dict(message=message,modules=modules,features=features)\n\n@auth.requires_login()\ndef agenda():\n    expte_id=False\n    if len(request.args)>1 and request.args[0]!=\'new\':\n        expte_id=db(db.agenda.id==int(request.args[2])).select(db.expediente.id)\n    maxtextlengths={\'db.agenda.vencimiento\':15,\n            \'db.agenda.titulo\':60,\n            \'db.agenda.texto\':70}\n    grid = SQLFORM.grid(db.agenda.created_by==auth.user.id,\n                        fields=[db.agenda.vencimiento,db.agenda.titulo,db.agenda.texto,db.agenda.estado,db.agenda.prioridad],\n                        maxtextlengths=maxtextlengths,maxtextlength=70,\n                        user_signature=False,exportclasses=myexport)\n    return locals()\n\n@auth.requires_login()\ndef calendar():\n    rows=db(db.agenda.created_by==auth.user.id).select()\n    return dict(rows=rows)\n\n@auth.requires_login()\ndef agenda_edit():\n    record = db.agenda(request.args(0,cast=int)) or redirect(URL(\'calendario\'))\n    expte= crud.read(db.expediente,record.expediente_id)\n    form = SQLFORM(db.agenda,record).process()\n    return locals()\n\n\nlinked_tables=[\'movimiento\',\'agenda\',\'parte\']\n@auth.requires_login()\ndef admin_expedientes():\n    maxtextlengths={\'db.expediente.numero\' : 15,\n             \'db.expediente.caratula\':60,\n             \'db.expediente.juzgado_id\':45,\n            \'db.movimiento.titulo\':60,\n            \'db.movimiento.texto\':70,\n            \'db.movimiento.estado\':5,\n            \'db.agenda.vencimiento\':15,\n            \'db.agenda.titulo\':60,\n            \'db.parte.persona_id\':50,\n            \'db.parte.caracter\':30}\n    ar = request.args # save typing\n    vv = request.vars.lang\n    expte=\'\'\n    \n    if ar and len(ar)>2:\n        #if \'expediente_id\' in ar[1]:\n            #expte= crud.read(db.expediente, ar[2])\n        if len(ar)>4 and ar[4]=="parte":\n            response.flash=\'Es una parte\'\n    grid = SQLFORM.smartgrid(db.expediente,\n                             fields=[db.expediente.numero,\n                                     db.expediente.caratula,\n                                     db.expediente.juzgado_id,\n                                    db.movimiento.estado,\n                                    db.movimiento.titulo,\n                                    db.movimiento.texto,\n                                    db.agenda.estado,db.agenda.prioridad,\n                                    db.agenda.vencimiento,\n                                    db.agenda.titulo,\n                                    db.parte.persona_id,\n                                    db.parte.caracter],\n                             constraints={\'expediente\':(db.expediente.created_by==auth.user.id)},\n                             linked_tables=linked_tables,\n                            buttons_placement = \'right\',\n                            exportclasses=myexport,\n                             maxtextlength=100,\n                            maxtextlengths=maxtextlengths)\n    #dd=info(grid)\n    return locals()\n\ndef vista_expediente():\n    expte= SQLFORM(db.expediente, int(request.args[0]), readonly=True)\n    links=[]\n    for k in linked_tables:\n        args=[\'expediente\',\'%s.expediente_id\'%k,request.args[0]]\n        url=URL(\'admin_expedientes\',args=args, user_signature=True)\n        text=SPAN(k.capitalize()+\'s\',_class=\'buttontext button\')\n        links.append(A(text,_href=url,_type=\'button\',_class=\'btn btn-default\'))\n    return dict(links=links,expte=expte)\n\n@auth.requires_login()\ndef admin_juzgados():\n    db.juzgado.fuero_id.widget._class=\'form-control string\'\n    grid = SQLFORM.grid(db.juzgado,user_signature=False,maxtextlength=50,exportclasses=myexport)\n    return locals()\n\n@auth.requires_login()\ndef admin_personas():\n    grid = SQLFORM.grid(db.persona.created_by==auth.user.id,\n                        user_signature=False,\n                        maxtextlength=50,\n                        exportclasses=myexport)\n    return locals()\n\n@auth.requires_login()\ndef fueros():\n    grid = SQLFORM.grid(db.fuero,maxtextlength=50,exportclasses=myexport)\n    return locals()\n\n@auth.requires_login()\ndef instancias():\n    grid = SQLFORM.grid(db.instancia,maxtextlength=50,exportclasses=myexport)\n    return locals()\n\ndef user():\n    """\n    exposes:\n    http://..../[app]/default/user/login\n    http://..../[app]/default/user/logout\n    http://..../[app]/default/user/register\n    http://..../[app]/default/user/profile\n    http://..../[app]/default/user/retrieve_password\n    http://..../[app]/default/user/change_password\n    http://..../[app]/default/user/bulk_register\n    use @auth.requires_login()\n        @auth.requires_membership(\'group name\')\n        @auth.requires_permission(\'read\',\'table name\',record_id)\n    to decorate functions that need access control\n    also notice there is http://..../[app]/appadmin/manage/auth to allow administrator to manage users\n    """\n    return dict(form=auth())\n\nresponse._vars=response._caller(vista_expediente)\n'
p7
sS'snapshot'
p8
(dp9
S'exception'
p10
(dp11
S'__hash__'
p12
S"<method-wrapper '__hash__' of exceptions.TypeError object>"
p13
sS'__setattr__'
p14
S"<method-wrapper '__setattr__' of exceptions.TypeError object>"
p15
sS'__reduce_ex__'
p16
S'<built-in method __reduce_ex__ of exceptions.TypeError object>'
p17
sS'__getslice__'
p18
S"<method-wrapper '__getslice__' of exceptions.TypeError object>"
p19
sS'__getitem__'
p20
S"<method-wrapper '__getitem__' of exceptions.TypeError object>"
p21
sS'__setstate__'
p22
S'<built-in method __setstate__ of exceptions.TypeError object>'
p23
sS'args'
p24
S'("int() argument must be a string or a number, not \'Rows\'",)'
p25
sS'__reduce__'
p26
S'<built-in method __reduce__ of exceptions.TypeError object>'
p27
sS'__str__'
p28
S"<method-wrapper '__str__' of exceptions.TypeError object>"
p29
sS'__format__'
p30
S'<built-in method __format__ of exceptions.TypeError object>'
p31
sS'__getattribute__'
p32
S"<method-wrapper '__getattribute__' of exceptions.TypeError object>"
p33
sS'__class__'
p34
S"<type 'exceptions.TypeError'>"
p35
sS'__unicode__'
p36
S'<built-in method __unicode__ of exceptions.TypeError object>'
p37
sS'__delattr__'
p38
S"<method-wrapper '__delattr__' of exceptions.TypeError object>"
p39
sS'__subclasshook__'
p40
S'<built-in method __subclasshook__ of type object>'
p41
sS'__repr__'
p42
S"<method-wrapper '__repr__' of exceptions.TypeError object>"
p43
sS'__dict__'
p44
S'{}'
p45
sS'__sizeof__'
p46
S'<built-in method __sizeof__ of exceptions.TypeError object>'
p47
sS'__doc__'
p48
S"'Inappropriate argument type.'"
p49
sS'__init__'
p50
S"<method-wrapper '__init__' of exceptions.TypeError object>"
p51
sS'__new__'
p52
S'<built-in method __new__ of type object>'
p53
ssS'evalue'
p54
S"int() argument must be a string or a number, not 'Rows'"
p55
sS'request'
p56
cgluon.html
XML_unpickle
p57
(S's\xb7\xac\x00\x00<div><table><tr><td style="font-weight:bold;vertical-align:top;">ajax</td><td style="vertical-align:top;">:</td><td><div>False</div></td></tr><tr><td style="font-weight:bold;vertical-align:top;">application</td><td style="vertical-align:top;">:</td><td><div>PyDoctor</div></td></tr><tr><td style="font-weight:bold;vertical-align:top;">args</td><td style="vertical-align:top;">:</td><td><div><table><tr><td><div><table><thead><tr><th>expediente.id</th></tr></thead><tbody><tr class="w2p_odd odd"><td>1</td></tr><tr class="w2p_even even"><td>2</td></tr><tr class="w2p_odd odd"><td>3</td></tr><tr class="w2p_even even"><td>4</td></tr><tr class="w2p_odd odd"><td>5</td></tr><tr class="w2p_even even"><td>6</td></tr><tr class="w2p_odd odd"><td>7</td></tr><tr class="w2p_even even"><td>8</td></tr><tr class="w2p_odd odd"><td>9</td></tr><tr class="w2p_even even"><td>10</td></tr><tr class="w2p_odd odd"><td>11</td></tr><tr class="w2p_even even"><td>12</td></tr><tr class="w2p_odd odd"><td>13</td></tr><tr class="w2p_even even"><td>14</td></tr><tr class="w2p_odd odd"><td>15</td></tr><tr class="w2p_even even"><td>16</td></tr><tr class="w2p_odd odd"><td>17</td></tr><tr class="w2p_even even"><td>18</td></tr><tr class="w2p_odd odd"><td>19</td></tr><tr class="w2p_even even"><td>20</td></tr><tr class="w2p_odd odd"><td>21</td></tr><tr class="w2p_even even"><td>22</td></tr><tr class="w2p_odd odd"><td>23</td></tr><tr class="w2p_even even"><td>24</td></tr><tr class="w2p_odd odd"><td>25</td></tr><tr class="w2p_even even"><td>26</td></tr><tr class="w2p_odd odd"><td>27</td></tr><tr class="w2p_even even"><td>28</td></tr><tr class="w2p_odd odd"><td>29</td></tr><tr class="w2p_even even"><td>30</td></tr><tr class="w2p_odd odd"><td>31</td></tr><tr class="w2p_even even"><td>32</td></tr><tr class="w2p_odd odd"><td>33</td></tr><tr class="w2p_even even"><td>34</td></tr><tr class="w2p_odd odd"><td>35</td></tr><tr class="w2p_even even"><td>36</td></tr><tr class="w2p_odd odd"><td>37</td></tr><tr class="w2p_even even"><td>38</td></tr><tr class="w2p_odd odd"><td>39</td></tr><tr class="w2p_even even"><td>40</td></tr><tr class="w2p_odd odd"><td>41</td></tr><tr class="w2p_even even"><td>42</td></tr><tr class="w2p_odd odd"><td>43</td></tr><tr class="w2p_even even"><td>44</td></tr><tr class="w2p_odd odd"><td>45</td></tr><tr class="w2p_even even"><td>46</td></tr><tr class="w2p_odd odd"><td>47</td></tr><tr class="w2p_even even"><td>48</td></tr><tr class="w2p_odd odd"><td>49</td></tr><tr class="w2p_even even"><td>50</td></tr><tr class="w2p_odd odd"><td>51</td></tr><tr class="w2p_even even"><td>52</td></tr><tr class="w2p_odd odd"><td>53</td></tr><tr class="w2p_even even"><td>54</td></tr><tr class="w2p_odd odd"><td>55</td></tr><tr class="w2p_even even"><td>56</td></tr><tr class="w2p_odd odd"><td>57</td></tr><tr class="w2p_even even"><td>58</td></tr><tr class="w2p_odd odd"><td>59</td></tr><tr class="w2p_even even"><td>60</td></tr><tr class="w2p_odd odd"><td>61</td></tr><tr class="w2p_even even"><td>62</td></tr><tr class="w2p_odd odd"><td>63</td></tr><tr class="w2p_even even"><td>64</td></tr><tr class="w2p_odd odd"><td>65</td></tr><tr class="w2p_even even"><td>66</td></tr><tr class="w2p_odd odd"><td>67</td></tr><tr class="w2p_even even"><td>68</td></tr><tr class="w2p_odd odd"><td>69</td></tr><tr class="w2p_even even"><td>70</td></tr><tr class="w2p_odd odd"><td>71</td></tr><tr class="w2p_even even"><td>72</td></tr><tr class="w2p_odd odd"><td>73</td></tr><tr class="w2p_even even"><td>74</td></tr><tr class="w2p_odd odd"><td>75</td></tr><tr class="w2p_even even"><td>76</td></tr><tr class="w2p_odd odd"><td>77</td></tr><tr class="w2p_even even"><td>78</td></tr><tr class="w2p_odd odd"><td>79</td></tr><tr class="w2p_even even"><td>80</td></tr><tr class="w2p_odd odd"><td>81</td></tr><tr class="w2p_even even"><td>82</td></tr><tr class="w2p_odd odd"><td>83</td></tr><tr class="w2p_even even"><td>84</td></tr><tr class="w2p_odd odd"><td>85</td></tr><tr class="w2p_even even"><td>86</td></tr><tr class="w2p_odd odd"><td>87</td></tr><tr class="w2p_even even"><td>88</td></tr><tr class="w2p_odd odd"><td>89</td></tr><tr class="w2p_even even"><td>90</td></tr><tr class="w2p_odd odd"><td>91</td></tr><tr class="w2p_even even"><td>92</td></tr><tr class="w2p_odd odd"><td>93</td></tr><tr class="w2p_even even"><td>94</td></tr><tr class="w2p_odd odd"><td>95</td></tr><tr class="w2p_even even"><td>96</td></tr><tr class="w2p_odd odd"><td>97</td></tr><tr class="w2p_even even"><td>98</td></tr><tr class="w2p_odd odd"><td>99</td></tr><tr class="w2p_even even"><td>100</td></tr><tr class="w2p_odd odd"><td>101</td></tr><tr class="w2p_even even"><td>102</td></tr><tr class="w2p_odd odd"><td>103</td></tr><tr class="w2p_even even"><td>104</td></tr><tr class="w2p_odd odd"><td>105</td></tr><tr class="w2p_even even"><td>106</td></tr><tr class="w2p_odd odd"><td>107</td></tr><tr class="w2p_even even"><td>108</td></tr><tr class="w2p_odd odd"><td>109</td></tr><tr class="w2p_even even"><td>110</td></tr><tr class="w2p_odd odd"><td>111</td></tr><tr class="w2p_even even"><td>112</td></tr><tr class="w2p_odd odd"><td>113</td></tr><tr class="w2p_even even"><td>114</td></tr><tr class="w2p_odd odd"><td>115</td></tr><tr class="w2p_even even"><td>116</td></tr><tr class="w2p_odd odd"><td>117</td></tr><tr class="w2p_even even"><td>118</td></tr><tr class="w2p_odd odd"><td>119</td></tr><tr class="w2p_even even"><td>120</td></tr><tr class="w2p_odd odd"><td>121</td></tr><tr class="w2p_even even"><td>122</td></tr><tr class="w2p_odd odd"><td>123</td></tr><tr class="w2p_even even"><td>124</td></tr><tr class="w2p_odd odd"><td>125</td></tr><tr class="w2p_even even"><td>126</td></tr><tr class="w2p_odd odd"><td>127</td></tr><tr class="w2p_even even"><td>128</td></tr><tr class="w2p_odd odd"><td>129</td></tr><tr class="w2p_even even"><td>130</td></tr><tr class="w2p_odd odd"><td>131</td></tr><tr class="w2p_even even"><td>132</td></tr><tr class="w2p_odd odd"><td>133</td></tr><tr class="w2p_even even"><td>134</td></tr><tr class="w2p_odd odd"><td>135</td></tr><tr class="w2p_even even"><td>136</td></tr><tr class="w2p_odd odd"><td>137</td></tr><tr class="w2p_even even"><td>138</td></tr><tr class="w2p_odd odd"><td>139</td></tr><tr class="w2p_even even"><td>140</td></tr><tr class="w2p_odd odd"><td>141</td></tr><tr class="w2p_even even"><td>142</td></tr><tr class="w2p_odd odd"><td>143</td></tr><tr class="w2p_even even"><td>144</td></tr><tr class="w2p_odd odd"><td>145</td></tr><tr class="w2p_even even"><td>146</td></tr><tr class="w2p_odd odd"><td>147</td></tr><tr class="w2p_even even"><td>148</td></tr><tr class="w2p_odd odd"><td>149</td></tr><tr class="w2p_even even"><td>150</td></tr><tr class="w2p_odd odd"><td>151</td></tr><tr class="w2p_even even"><td>152</td></tr><tr class="w2p_odd odd"><td>153</td></tr><tr class="w2p_even even"><td>154</td></tr><tr class="w2p_odd odd"><td>155</td></tr><tr class="w2p_even even"><td>156</td></tr><tr class="w2p_odd odd"><td>157</td></tr><tr class="w2p_even even"><td>158</td></tr><tr class="w2p_odd odd"><td>159</td></tr><tr class="w2p_even even"><td>160</td></tr><tr class="w2p_odd odd"><td>161</td></tr><tr class="w2p_even even"><td>162</td></tr><tr class="w2p_odd odd"><td>163</td></tr><tr class="w2p_even even"><td>164</td></tr><tr class="w2p_odd odd"><td>165</td></tr><tr class="w2p_even even"><td>166</td></tr><tr class="w2p_odd odd"><td>167</td></tr><tr class="w2p_even even"><td>168</td></tr><tr class="w2p_odd odd"><td>169</td></tr><tr class="w2p_even even"><td>170</td></tr><tr class="w2p_odd odd"><td>171</td></tr><tr class="w2p_even even"><td>172</td></tr><tr class="w2p_odd odd"><td>173</td></tr><tr class="w2p_even even"><td>174</td></tr><tr class="w2p_odd odd"><td>175</td></tr><tr class="w2p_even even"><td>176</td></tr><tr class="w2p_odd odd"><td>177</td></tr><tr class="w2p_even even"><td>178</td></tr><tr class="w2p_odd odd"><td>179</td></tr><tr class="w2p_even even"><td>180</td></tr></tbody></table></div></td></tr></table></div></td></tr><tr><td style="font-weight:bold;vertical-align:top;">cid</td><td style="vertical-align:top;">:</td><td><div>c270903102163</div></td></tr><tr><td style="font-weight:bold;vertical-align:top;">client</td><td style="vertical-align:top;">:</td><td><div>127.0.0.1</div></td></tr><tr><td style="font-weight:bold;vertical-align:top;">controller</td><td style="vertical-align:top;">:</td><td><div>default</div></td></tr><tr><td style="font-weight:bold;vertical-align:top;">cookies</td><td style="vertical-align:top;">:</td><td><div><table><tr><td style="font-weight:bold;vertical-align:top;">session_id_admin</td><td style="vertical-align:top;">:</td><td><div>127.0.0.1-aa9a37b6-5398-4952-85b7-cefb941e4789<table><tr><td style="font-weight:bold;vertical-align:top;">comment</td><td style="vertical-align:top;">:</td><td><div></div></td></tr><tr><td style="font-weight:bold;vertical-align:top;">domain</td><td style="vertical-align:top;">:</td><td><div></div></td></tr><tr><td style="font-weight:bold;vertical-align:top;">expires</td><td style="vertical-align:top;">:</td><td><div></div></td></tr><tr><td style="font-weight:bold;vertical-align:top;">httponly</td><td style="vertical-align:top;">:</td><td><div></div></td></tr><tr><td style="font-weight:bold;vertical-align:top;">max-age</td><td style="vertical-align:top;">:</td><td><div></div></td></tr><tr><td style="font-weight:bold;vertical-align:top;">path</td><td style="vertical-align:top;">:</td><td><div></div></td></tr><tr><td style="font-weight:bold;vertical-align:top;">secure</td><td style="vertical-align:top;">:</td><td><div></div></td></tr><tr><td style="font-weight:bold;vertical-align:top;">version</td><td style="vertical-align:top;">:</td><td><div></div></td></tr></table></div></td></tr><tr><td style="font-weight:bold;vertical-align:top;">session_id_pydoctor</td><td style="vertical-align:top;">:</td><td><div>127.0.0.1-5b40538b-5d3a-4409-9542-f15a4682b249<table><tr><td style="font-weight:bold;vertical-align:top;">comment</td><td style="vertical-align:top;">:</td><td><div></div></td></tr><tr><td style="font-weight:bold;vertical-align:top;">domain</td><td style="vertical-align:top;">:</td><td><div></div></td></tr><tr><td style="font-weight:bold;vertical-align:top;">expires</td><td style="vertical-align:top;">:</td><td><div></div></td></tr><tr><td style="font-weight:bold;vertical-align:top;">httponly</td><td style="vertical-align:top;">:</td><td><div></div></td></tr><tr><td style="font-weight:bold;vertical-align:top;">max-age</td><td style="vertical-align:top;">:</td><td><div></div></td></tr><tr><td style="font-weight:bold;vertical-align:top;">path</td><td style="vertical-align:top;">:</td><td><div></div></td></tr><tr><td style="font-weight:bold;vertical-align:top;">secure</td><td style="vertical-align:top;">:</td><td><div></div></td></tr><tr><td style="font-weight:bold;vertical-align:top;">version</td><td style="vertical-align:top;">:</td><td><div></div></td></tr></table></div></td></tr><tr><td style="font-weight:bold;vertical-align:top;">session_id_welcome</td><td style="vertical-align:top;">:</td><td><div>127.0.0.1-88da6817-9ad7-485f-a9ff-f0383d6bb332<table><tr><td style="font-weight:bold;vertical-align:top;">comment</td><td style="vertical-align:top;">:</td><td><div></div></td></tr><tr><td style="font-weight:bold;vertical-align:top;">domain</td><td style="vertical-align:top;">:</td><td><div></div></td></tr><tr><td style="font-weight:bold;vertical-align:top;">expires</td><td style="vertical-align:top;">:</td><td><div></div></td></tr><tr><td style="font-weight:bold;vertical-align:top;">httponly</td><td style="vertical-align:top;">:</td><td><div></div></td></tr><tr><td style="font-weight:bold;vertical-align:top;">max-age</td><td style="vertical-align:top;">:</td><td><div></div></td></tr><tr><td style="font-weight:bold;vertical-align:top;">path</td><td style="vertical-align:top;">:</td><td><div></div></td></tr><tr><td style="font-weight:bold;vertical-align:top;">secure</td><td style="vertical-align:top;">:</td><td><div></div></td></tr><tr><td style="font-weight:bold;vertical-align:top;">version</td><td style="vertical-align:top;">:</td><td><div></div></td></tr></table></div></td></tr></table></div></td></tr><tr><td style="font-weight:bold;vertical-align:top;">env</td><td style="vertical-align:top;">:</td><td><div><table><tr><td style="font-weight:bold;vertical-align:top;">HTTP_ACCEPT</td><td style="vertical-align:top;">:</td><td><div>text/html,application/xhtml+xml,application/xml;q=0.9,*/*;q=0.8</div></td></tr><tr><td style="font-weight:bold;vertical-align:top;">HTTP_ACCEPT_ENCODING</td><td style="vertical-align:top;">:</td><td><div>gzip, deflate</div></td></tr><tr><td style="font-weight:bold;vertical-align:top;">HTTP_ACCEPT_LANGUAGE</td><td style="vertical-align:top;">:</td><td><div>en-US,en;q=0.5</div></td></tr><tr><td style="font-weight:bold;vertical-align:top;">HTTP_CACHE_CONTROL</td><td style="vertical-align:top;">:</td><td><div>max-age=0</div></td></tr><tr><td style="font-weight:bold;vertical-align:top;">HTTP_CONNECTION</td><td style="vertical-align:top;">:</td><td><div>keep-alive</div></td></tr><tr><td style="font-weight:bold;vertical-align:top;">HTTP_COOKIE</td><td style="vertical-align:top;">:</td><td><div>session_id_welcome=127.0.0.1-88da6817-9ad7-485f-a9ff-f0383d6bb332; session_id_admin=127.0.0.1-aa9a37b6-5398-4952-85b7-cefb941e4789; session_id_pydoctor=127.0.0.1-5b40538b-5d3a-4409-9542-f15a4682b249</div></td></tr><tr><td style="font-weight:bold;vertical-align:top;">HTTP_HOST</td><td style="vertical-align:top;">:</td><td><div>127.0.0.1:8000</div></td></tr><tr><td style="font-weight:bold;vertical-align:top;">HTTP_REFERER</td><td style="vertical-align:top;">:</td><td><div>http://127.0.0.1:8000/PyDoctor/default/agenda</div></td></tr><tr><td style="font-weight:bold;vertical-align:top;">HTTP_USER_AGENT</td><td style="vertical-align:top;">:</td><td><div>Mozilla/5.0 (X11; Ubuntu; Linux x86_64; rv:44.0) Gecko/20100101 Firefox/44.0</div></td></tr><tr><td style="font-weight:bold;vertical-align:top;">PATH_INFO</td><td style="vertical-align:top;">:</td><td><div>/PyDoctor/default/agenda/edit/agenda/2</div></td></tr><tr><td style="font-weight:bold;vertical-align:top;">QUERY_STRING</td><td style="vertical-align:top;">:</td><td><div></div></td></tr><tr><td style="font-weight:bold;vertical-align:top;">REMOTE_ADDR</td><td style="vertical-align:top;">:</td><td><div>127.0.0.1</div></td></tr><tr><td style="font-weight:bold;vertical-align:top;">REMOTE_PORT</td><td style="vertical-align:top;">:</td><td><div>54226</div></td></tr><tr><td style="font-weight:bold;vertical-align:top;">REQUEST_METHOD</td><td style="vertical-align:top;">:</td><td><div>GET</div></td></tr><tr><td style="font-weight:bold;vertical-align:top;">SCRIPT_NAME</td><td style="vertical-align:top;">:</td><td><div></div></td></tr><tr><td style="font-weight:bold;vertical-align:top;">SERVER_NAME</td><td style="vertical-align:top;">:</td><td><div>marian-GA-MA770T-UD3</div></td></tr><tr><td style="font-weight:bold;vertical-align:top;">SERVER_PORT</td><td style="vertical-align:top;">:</td><td><div>8000</div></td></tr><tr><td style="font-weight:bold;vertical-align:top;">SERVER_PROTOCOL</td><td style="vertical-align:top;">:</td><td><div>HTTP/1.1</div></td></tr><tr><td style="font-weight:bold;vertical-align:top;">SERVER_SOFTWARE</td><td style="vertical-align:top;">:</td><td><div>Rocket 1.2.6</div></td></tr><tr><td style="font-weight:bold;vertical-align:top;">app_folders</td><td style="vertical-align:top;">:</td><td><div>set([&#x27;/home/marian/web2py/applications/welcome/&#x27;, &#x27;/home/marian/web2py/applications/PyDoctor/&#x27;, &#x27;/home/marian/web2py/applications/admin/&#x27;])</div></td></tr><tr><td style="font-weight:bold;vertical-align:top;">applications_parent</td><td style="vertical-align:top;">:</td><td><div>/home/marian/web2py</div></td></tr><tr><td style="font-weight:bold;vertical-align:top;">cmd_args</td><td style="vertical-align:top;">:</td><td><div><table></table></div></td></tr><tr><td style="font-weight:bold;vertical-align:top;">cmd_options</td><td style="vertical-align:top;">:</td><td><div>&lt;Values at 0x7fb44601cd40: {&#x27;verbose&#x27;: False, &#x27;ip&#x27;: &#x27;127.0.0.1&#x27;, &#x27;debuglevel&#x27;: 30, &#x27;with_scheduler&#x27;: False, &#x27;ips&#x27;: [&#x27;127.0.1.1&#x27;], &#x27;shutdown_timeout&#x27;: 5, &#x27;taskbar&#x27;: False, &#x27;with_coverage&#x27;: False, &#x27;scheduler_groups&#x27;: None, &#x27;port&#x27;: 8000, &#x27;maxthreads&#x27;: None, &#x27;softcron&#x27;: False, &#x27;server_name&#x27;: &#x27;marian-GA-MA770T-UD3&#x27;, &#x27;bpython&#x27;: False, &#x27;nogui&#x27;: False, &#x27;pid_filename&#x27;: &#x27;httpserver.pid&#x27;, &#x27;print_errors&#x27;: False, &#x27;extcron&#x27;: False, &#x27;runcron&#x27;: False, &#x27;run_system_tests&#x27;: False, &#x27;test&#x27;: None, &#x27;folder&#x27;: &#x27;/home/marian/web2py&#x27;, &#x27;config&#x27;: &#x27;&#x27;, &#x27;minthreads&#x27;: None, &#x27;shell&#x27;: None, &#x27;run&#x27;: &#x27;&#x27;, &#x27;log_filename&#x27;: &#x27;httpserver.log&#x27;, &#x27;profiler_dir&#x27;: None, &#x27;args&#x27;: [&#x27;&#x27;], &#x27;socket_timeout&#x27;: 5, &#x27;ssl_ca_certificate&#x27;: None, &#x27;scheduler&#x27;: None, &#x27;interfaces&#x27;: None, &#x27;ssl_private_key&#x27;: &#x27;&#x27;, &#x27;gae&#x27;: None, &#x27;password&#x27;: &#x27;&lt;ask&gt;&#x27;, &#x27;request_queue_size&#x27;: 5, &#x27;ssl_certificate&#x27;: &#x27;&#x27;, &#x27;cronjob&#x27;: False, &#x27;numthreads&#x27;: None, &#x27;quiet&#x27;: False, &#x27;import_models&#x27;: False, &#x27;timeout&#x27;: 10, &#x27;plain&#x27;: False, &#x27;nobanner&#x27;: False}&gt;</div></td></tr><tr><td style="font-weight:bold;vertical-align:top;">db_sessions</td><td style="vertical-align:top;">:</td><td><div>set([])</div></td></tr><tr><td style="font-weight:bold;vertical-align:top;">debugging</td><td style="vertical-align:top;">:</td><td><div>True</div></td></tr><tr><td style="font-weight:bold;vertical-align:top;">gluon_parent</td><td style="vertical-align:top;">:</td><td><div>/home/marian/web2py</div></td></tr><tr><td style="font-weight:bold;vertical-align:top;">http_accept</td><td style="vertical-align:top;">:</td><td><div>text/html,application/xhtml+xml,application/xml;q=0.9,*/*;q=0.8</div></td></tr><tr><td style="font-weight:bold;vertical-align:top;">http_accept_encoding</td><td style="vertical-align:top;">:</td><td><div>gzip, deflate</div></td></tr><tr><td style="font-weight:bold;vertical-align:top;">http_accept_language</td><td style="vertical-align:top;">:</td><td><div>en-US,en;q=0.5</div></td></tr><tr><td style="font-weight:bold;vertical-align:top;">http_cache_control</td><td style="vertical-align:top;">:</td><td><div>max-age=0</div></td></tr><tr><td style="font-weight:bold;vertical-align:top;">http_connection</td><td style="vertical-align:top;">:</td><td><div>keep-alive</div></td></tr><tr><td style="font-weight:bold;vertical-align:top;">http_cookie</td><td style="vertical-align:top;">:</td><td><div>session_id_welcome=127.0.0.1-88da6817-9ad7-485f-a9ff-f0383d6bb332; session_id_admin=127.0.0.1-aa9a37b6-5398-4952-85b7-cefb941e4789; session_id_pydoctor=127.0.0.1-5b40538b-5d3a-4409-9542-f15a4682b249</div></td></tr><tr><td style="font-weight:bold;vertical-align:top;">http_host</td><td style="vertical-align:top;">:</td><td><div>127.0.0.1:8000</div></td></tr><tr><td style="font-weight:bold;vertical-align:top;">http_referer</td><td style="vertical-align:top;">:</td><td><div>http://127.0.0.1:8000/PyDoctor/default/agenda</div></td></tr><tr><td style="font-weight:bold;vertical-align:top;">http_user_agent</td><td style="vertical-align:top;">:</td><td><div>Mozilla/5.0 (X11; Ubuntu; Linux x86_64; rv:44.0) Gecko/20100101 Firefox/44.0</div></td></tr><tr><td style="font-weight:bold;vertical-align:top;">http_web2py_component_element</td><td style="vertical-align:top;">:</td><td><div>c270903102163</div></td></tr><tr><td style="font-weight:bold;vertical-align:top;">http_web2py_component_location</td><td style="vertical-align:top;">:</td><td><div>/PyDoctor/default/agenda/edit/agenda/2</div></td></tr><tr><td style="font-weight:bold;vertical-align:top;">is_jython</td><td style="vertical-align:top;">:</td><td><div>False</div></td></tr><tr><td style="font-weight:bold;vertical-align:top;">is_pypy</td><td style="vertical-align:top;">:</td><td><div>False</div></td></tr><tr><td style="font-weight:bold;vertical-align:top;">is_source</td><td style="vertical-align:top;">:</td><td><div>True</div></td></tr><tr><td style="font-weight:bold;vertical-align:top;">local_hosts</td><td style="vertical-align:top;">:</td><td><div><table><tr><td><div>::1</div></td></tr><tr><td><div>127.0.1.1</div></td></tr><tr><td><div>::ffff:127.0.0.1</div></td></tr><tr><td><div>127.0.0.1</div></td></tr><tr><td><div>marian-GA-MA770T-UD3</div></td></tr></table></div></td></tr><tr><td style="font-weight:bold;vertical-align:top;">path_info</td><td style="vertical-align:top;">:</td><td><div>/PyDoctor/default/vista_expediente/expediente.id\r\n1\r\n2\r\n3\r\n4\r\n5\r\n6\r\n7\r\n8\r\n9\r\n10\r\n11\r\n12\r\n13\r\n14\r\n15\r\n16\r\n17\r\n18\r\n19\r\n20\r\n21\r\n22\r\n23\r\n24\r\n25\r\n26\r\n27\r\n28\r\n29\r\n30\r\n31\r\n32\r\n33\r\n34\r\n35\r\n36\r\n37\r\n38\r\n39\r\n40\r\n41\r\n42\r\n43\r\n44\r\n45\r\n46\r\n47\r\n48\r\n49\r\n50\r\n51\r\n52\r\n53\r\n54\r\n55\r\n56\r\n57\r\n58\r\n59\r\n60\r\n61\r\n62\r\n63\r\n64\r\n65\r\n66\r\n67\r\n68\r\n69\r\n70\r\n71\r\n72\r\n73\r\n74\r\n75\r\n76\r\n77\r\n78\r\n79\r\n80\r\n81\r\n82\r\n83\r\n84\r\n85\r\n86\r\n87\r\n88\r\n89\r\n90\r\n91\r\n92\r\n93\r\n94\r\n95\r\n96\r\n97\r\n98\r\n99\r\n100\r\n101\r\n102\r\n103\r\n104\r\n105\r\n106\r\n107\r\n108\r\n109\r\n110\r\n111\r\n112\r\n113\r\n114\r\n115\r\n116\r\n117\r\n118\r\n119\r\n120\r\n121\r\n122\r\n123\r\n124\r\n125\r\n126\r\n127\r\n128\r\n129\r\n130\r\n131\r\n132\r\n133\r\n134\r\n135\r\n136\r\n137\r\n138\r\n139\r\n140\r\n141\r\n142\r\n143\r\n144\r\n145\r\n146\r\n147\r\n148\r\n149\r\n150\r\n151\r\n152\r\n153\r\n154\r\n155\r\n156\r\n157\r\n158\r\n159\r\n160\r\n161\r\n162\r\n163\r\n164\r\n165\r\n166\r\n167\r\n168\r\n169\r\n170\r\n171\r\n172\r\n173\r\n174\r\n175\r\n176\r\n177\r\n178\r\n179\r\n180\r\n</div></td></tr><tr><td style="font-weight:bold;vertical-align:top;">query_string</td><td style="vertical-align:top;">:</td><td><div></div></td></tr><tr><td style="font-weight:bold;vertical-align:top;">remote_addr</td><td style="vertical-align:top;">:</td><td><div>127.0.0.1</div></td></tr><tr><td style="font-weight:bold;vertical-align:top;">remote_port</td><td style="vertical-align:top;">:</td><td><div>54226</div></td></tr><tr><td style="font-weight:bold;vertical-align:top;">request_method</td><td style="vertical-align:top;">:</td><td><div>GET</div></td></tr><tr><td style="font-weight:bold;vertical-align:top;">request_uri</td><td style="vertical-align:top;">:</td><td><div>/PyDoctor/default/agenda/edit/agenda/2</div></td></tr><tr><td style="font-weight:bold;vertical-align:top;">script_name</td><td style="vertical-align:top;">:</td><td><div></div></td></tr><tr><td style="font-weight:bold;vertical-align:top;">server_name</td><td style="vertical-align:top;">:</td><td><div>marian-GA-MA770T-UD3</div></td></tr><tr><td style="font-weight:bold;vertical-align:top;">server_port</td><td style="vertical-align:top;">:</td><td><div>8000</div></td></tr><tr><td style="font-weight:bold;vertical-align:top;">server_protocol</td><td style="vertical-align:top;">:</td><td><div>HTTP/1.1</div></td></tr><tr><td style="font-weight:bold;vertical-align:top;">server_software</td><td style="vertical-align:top;">:</td><td><div>Rocket 1.2.6</div></td></tr><tr><td style="font-weight:bold;vertical-align:top;">web2py_path</td><td style="vertical-align:top;">:</td><td><div>/home/marian/web2py</div></td></tr><tr><td style="font-weight:bold;vertical-align:top;">web2py_version</td><td style="vertical-align:top;">:</td><td><div>2.13.3-stable+timestamp.2015.12.24.08.08.22</div></td></tr><tr><td style="font-weight:bold;vertical-align:top;">wsgi.errors</td><td style="vertical-align:top;">:</td><td><div>&lt;open file &#x27;&lt;stderr&gt;&#x27;, mode &#x27;w&#x27; at 0x7fb44d0591e0&gt;</div></td></tr><tr><td style="font-weight:bold;vertical-align:top;">wsgi.file_wrapper</td><td style="vertical-align:top;">:</td><td><div>&lt;class wsgiref.util.FileWrapper at 0x7fb44604a390&gt;</div></td></tr><tr><td style="font-weight:bold;vertical-align:top;">wsgi.input</td><td style="vertical-align:top;">:</td><td><div>&lt;socket._fileobject object at 0x7fb407101250&gt;</div></td></tr><tr><td style="font-weight:bold;vertical-align:top;">wsgi.multiprocess</td><td style="vertical-align:top;">:</td><td><div>False</div></td></tr><tr><td style="font-weight:bold;vertical-align:top;">wsgi.multithread</td><td style="vertical-align:top;">:</td><td><div>True</div></td></tr><tr><td style="font-weight:bold;vertical-align:top;">wsgi.run_once</td><td style="vertical-align:top;">:</td><td><div>False</div></td></tr><tr><td style="font-weight:bold;vertical-align:top;">wsgi.url_scheme</td><td style="vertical-align:top;">:</td><td><div>http</div></td></tr><tr><td style="font-weight:bold;vertical-align:top;">wsgi.version</td><td style="vertical-align:top;">:</td><td><div><table><tr><td><div>1</div></td></tr><tr><td><div>0</div></td></tr></table></div></td></tr><tr><td style="font-weight:bold;vertical-align:top;">wsgi_errors</td><td style="vertical-align:top;">:</td><td><div>&lt;open file &#x27;&lt;stderr&gt;&#x27;, mode &#x27;w&#x27; at 0x7fb44d0591e0&gt;</div></td></tr><tr><td style="font-weight:bold;vertical-align:top;">wsgi_file_wrapper</td><td style="vertical-align:top;">:</td><td><div>&lt;class wsgiref.util.FileWrapper at 0x7fb44604a390&gt;</div></td></tr><tr><td style="font-weight:bold;vertical-align:top;">wsgi_input</td><td style="vertical-align:top;">:</td><td><div>&lt;socket._fileobject object at 0x7fb407101250&gt;</div></td></tr><tr><td style="font-weight:bold;vertical-align:top;">wsgi_multiprocess</td><td style="vertical-align:top;">:</td><td><div>False</div></td></tr><tr><td style="font-weight:bold;vertical-align:top;">wsgi_multithread</td><td style="vertical-align:top;">:</td><td><div>True</div></td></tr><tr><td style="font-weight:bold;vertical-align:top;">wsgi_run_once</td><td style="vertical-align:top;">:</td><td><div>False</div></td></tr><tr><td style="font-weight:bold;vertical-align:top;">wsgi_url_scheme</td><td style="vertical-align:top;">:</td><td><div>http</div></td></tr><tr><td style="font-weight:bold;vertical-align:top;">wsgi_version</td><td style="vertical-align:top;">:</td><td><div><table><tr><td><div>1</div></td></tr><tr><td><div>0</div></td></tr></table></div></td></tr></table></div></td></tr><tr><td style="font-weight:bold;vertical-align:top;">extension</td><td style="vertical-align:top;">:</td><td><div>html</div></td></tr><tr><td style="font-weight:bold;vertical-align:top;">folder</td><td style="vertical-align:top;">:</td><td><div>/home/marian/web2py/applications/PyDoctor/</div></td></tr><tr><td style="font-weight:bold;vertical-align:top;">function</td><td style="vertical-align:top;">:</td><td><div>vista_expediente</div></td></tr><tr><td style="font-weight:bold;vertical-align:top;">get_vars</td><td style="vertical-align:top;">:</td><td><div><table></table></div></td></tr><tr><td style="font-weight:bold;vertical-align:top;">global_settings</td><td style="vertical-align:top;">:</td><td><div><table><tr><td style="font-weight:bold;vertical-align:top;">app_folders</td><td style="vertical-align:top;">:</td><td><div>set([&#x27;/home/marian/web2py/applications/welcome/&#x27;, &#x27;/home/marian/web2py/applications/PyDoctor/&#x27;, &#x27;/home/marian/web2py/applications/admin/&#x27;])</div></td></tr><tr><td style="font-weight:bold;vertical-align:top;">applications_parent</td><td style="vertical-align:top;">:</td><td><div>/home/marian/web2py</div></td></tr><tr><td style="font-weight:bold;vertical-align:top;">cmd_args</td><td style="vertical-align:top;">:</td><td><div><table></table></div></td></tr><tr><td style="font-weight:bold;vertical-align:top;">cmd_options</td><td style="vertical-align:top;">:</td><td><div>&lt;Values at 0x7fb44601cd40: {&#x27;verbose&#x27;: False, &#x27;ip&#x27;: &#x27;127.0.0.1&#x27;, &#x27;debuglevel&#x27;: 30, &#x27;with_scheduler&#x27;: False, &#x27;ips&#x27;: [&#x27;127.0.1.1&#x27;], &#x27;shutdown_timeout&#x27;: 5, &#x27;taskbar&#x27;: False, &#x27;with_coverage&#x27;: False, &#x27;scheduler_groups&#x27;: None, &#x27;port&#x27;: 8000, &#x27;maxthreads&#x27;: None, &#x27;softcron&#x27;: False, &#x27;server_name&#x27;: &#x27;marian-GA-MA770T-UD3&#x27;, &#x27;bpython&#x27;: False, &#x27;nogui&#x27;: False, &#x27;pid_filename&#x27;: &#x27;httpserver.pid&#x27;, &#x27;print_errors&#x27;: False, &#x27;extcron&#x27;: False, &#x27;runcron&#x27;: False, &#x27;run_system_tests&#x27;: False, &#x27;test&#x27;: None, &#x27;folder&#x27;: &#x27;/home/marian/web2py&#x27;, &#x27;config&#x27;: &#x27;&#x27;, &#x27;minthreads&#x27;: None, &#x27;shell&#x27;: None, &#x27;run&#x27;: &#x27;&#x27;, &#x27;log_filename&#x27;: &#x27;httpserver.log&#x27;, &#x27;profiler_dir&#x27;: None, &#x27;args&#x27;: [&#x27;&#x27;], &#x27;socket_timeout&#x27;: 5, &#x27;ssl_ca_certificate&#x27;: None, &#x27;scheduler&#x27;: None, &#x27;interfaces&#x27;: None, &#x27;ssl_private_key&#x27;: &#x27;&#x27;, &#x27;gae&#x27;: None, &#x27;password&#x27;: &#x27;&lt;ask&gt;&#x27;, &#x27;request_queue_size&#x27;: 5, &#x27;ssl_certificate&#x27;: &#x27;&#x27;, &#x27;cronjob&#x27;: False, &#x27;numthreads&#x27;: None, &#x27;quiet&#x27;: False, &#x27;import_models&#x27;: False, &#x27;timeout&#x27;: 10, &#x27;plain&#x27;: False, &#x27;nobanner&#x27;: False}&gt;</div></td></tr><tr><td style="font-weight:bold;vertical-align:top;">db_sessions</td><td style="vertical-align:top;">:</td><td><div>set([])</div></td></tr><tr><td style="font-weight:bold;vertical-align:top;">debugging</td><td style="vertical-align:top;">:</td><td><div>True</div></td></tr><tr><td style="font-weight:bold;vertical-align:top;">gluon_parent</td><td style="vertical-align:top;">:</td><td><div>/home/marian/web2py</div></td></tr><tr><td style="font-weight:bold;vertical-align:top;">is_jython</td><td style="vertical-align:top;">:</td><td><div>False</div></td></tr><tr><td style="font-weight:bold;vertical-align:top;">is_pypy</td><td style="vertical-align:top;">:</td><td><div>False</div></td></tr><tr><td style="font-weight:bold;vertical-align:top;">is_source</td><td style="vertical-align:top;">:</td><td><div>True</div></td></tr><tr><td style="font-weight:bold;vertical-align:top;">local_hosts</td><td style="vertical-align:top;">:</td><td><div><table><tr><td><div>::1</div></td></tr><tr><td><div>127.0.1.1</div></td></tr><tr><td><div>::ffff:127.0.0.1</div></td></tr><tr><td><div>127.0.0.1</div></td></tr><tr><td><div>marian-GA-MA770T-UD3</div></td></tr></table></div></td></tr><tr><td style="font-weight:bold;vertical-align:top;">web2py_version</td><td style="vertical-align:top;">:</td><td><div>2.13.3-stable+timestamp.2015.12.24.08.08.22</div></td></tr></table></div></td></tr><tr><td style="font-weight:bold;vertical-align:top;">is_https</td><td style="vertical-align:top;">:</td><td><div>False</div></td></tr><tr><td style="font-weight:bold;vertical-align:top;">is_local</td><td style="vertical-align:top;">:</td><td><div>True</div></td></tr><tr><td style="font-weight:bold;vertical-align:top;">is_restful</td><td style="vertical-align:top;">:</td><td><div>False</div></td></tr><tr><td style="font-weight:bold;vertical-align:top;">is_scheduler</td><td style="vertical-align:top;">:</td><td><div>False</div></td></tr><tr><td style="font-weight:bold;vertical-align:top;">is_shell</td><td style="vertical-align:top;">:</td><td><div>False</div></td></tr><tr><td style="font-weight:bold;vertical-align:top;">now</td><td style="vertical-align:top;">:</td><td><div>datetime.datetime(2016, 2, 4, 19, 1, 56, 962320)</div></td></tr><tr><td style="font-weight:bold;vertical-align:top;">post_vars</td><td style="vertical-align:top;">:</td><td><div><table></table></div></td></tr><tr><td style="font-weight:bold;vertical-align:top;">raw_args</td><td style="vertical-align:top;">:</td><td><div>edit/agenda/2</div></td></tr><tr><td style="font-weight:bold;vertical-align:top;">raw_extension</td><td style="vertical-align:top;">:</td><td><div>None</div></td></tr><tr><td style="font-weight:bold;vertical-align:top;">restful</td><td style="vertical-align:top;">:</td><td><div>&lt;bound method ?.restful of &lt;Storage {&#x27;_vars&#x27;: &lt;Storage {}&gt;, &#x27;function&#x27;: &#x27;vista_expediente&#x27;, &#x27;cookies&#x27;: &lt;SimpleCookie: session_id_admin=&#x27;127.0.0.1-aa9a37b6-5398-4952-85b7-cefb941e4789&#x27; session_id_pydoctor=&#x27;127.0.0.1-5b40538b-5d3a-4409-9542-f15a4682b249&#x27; session_id_welcome=&#x27;127.0.0.1-88da6817-9ad7-485f-a9ff-f0383d6bb332&#x27;&gt;, &#x27;args&#x27;: [&lt;Rows (180)&gt;], &#x27;env&#x27;: &lt;Storage {&#x27;HTTP_REFERER&#x27;: &#x27;http://127.0.0.1:8000/PyDoctor/default/agenda&#x27;, &#x27;SERVER_SOFTWARE&#x27;: &#x27;Rocket 1.2.6&#x27;, &#x27;script_name&#x27;: &#x27;&#x27;, &#x27;REQUEST_METHOD&#x27;: &#x27;GET&#x27;, &#x27;SERVER_PROTOCOL&#x27;: &#x27;HTTP/1.1&#x27;, &#x27;http_cache_control&#x27;: &#x27;max-age=0&#x27;, &#x27;web2py_path&#x27;: &#x27;/home/marian/web2py&#x27;, &#x27;wsgi_url_scheme&#x27;: &#x27;http&#x27;, &#x27;REMOTE_PORT&#x27;: &#x27;54226&#x27;, &#x27;server_name&#x27;: &#x27;marian-GA-MA770T-UD3&#x27;, &#x27;applications_parent&#x27;: &#x27;/home/marian/web2py&#x27;, &#x27;cmd_options&#x27;: &lt;Values at 0x7fb44601cd40: {&#x27;verbose&#x27;: False, &#x27;ip&#x27;: &#x27;127.0.0.1&#x27;, &#x27;debuglevel&#x27;: 30, &#x27;with_scheduler&#x27;: False, &#x27;ips&#x27;: [&#x27;127.0.1.1&#x27;], &#x27;shutdown_timeout&#x27;: 5, &#x27;taskbar&#x27;: False, &#x27;with_coverage&#x27;: False, &#x27;scheduler_groups&#x27;: None, &#x27;port&#x27;: 8000, &#x27;maxthreads&#x27;: None, &#x27;softcron&#x27;: False, &#x27;server_name&#x27;: &#x27;marian-GA-MA770T-UD3&#x27;, &#x27;bpython&#x27;: False, &#x27;nogui&#x27;: False, &#x27;pid_filename&#x27;: &#x27;httpserver.pid&#x27;, &#x27;print_errors&#x27;: False, &#x27;extcron&#x27;: False, &#x27;runcron&#x27;: False, &#x27;run_system_tests&#x27;: False, &#x27;test&#x27;: None, &#x27;folder&#x27;: &#x27;/home/marian/web2py&#x27;, &#x27;config&#x27;: &#x27;&#x27;, &#x27;minthreads&#x27;: None, &#x27;shell&#x27;: None, &#x27;run&#x27;: &#x27;&#x27;, &#x27;log_filename&#x27;: &#x27;httpserver.log&#x27;, &#x27;profiler_dir&#x27;: None, &#x27;args&#x27;: [&#x27;&#x27;], &#x27;socket_timeout&#x27;: 5, &#x27;ssl_ca_certificate&#x27;: None, &#x27;scheduler&#x27;: None, &#x27;interfaces&#x27;: None, &#x27;ssl_private_key&#x27;: &#x27;&#x27;, &#x27;gae&#x27;: None, &#x27;password&#x27;: &#x27;&lt;ask&gt;&#x27;, &#x27;request_queue_size&#x27;: 5, &#x27;ssl_certificate&#x27;: &#x27;&#x27;, &#x27;cronjob&#x27;: False, &#x27;numthreads&#x27;: None, &#x27;quiet&#x27;: False, &#x27;import_models&#x27;: False, &#x27;timeout&#x27;: 10, &#x27;plain&#x27;: False, &#x27;nobanner&#x27;: False}&gt;, &#x27;wsgi_errors&#x27;: &lt;open file &#x27;&lt;stderr&gt;&#x27;, mode &#x27;w&#x27; at 0x7fb44d0591e0&gt;, &#x27;request_method&#x27;: &#x27;GET&#x27;, &#x27;SERVER_PORT&#x27;: &#x27;8000&#x27;, &#x27;wsgi_multithread&#x27;: True, &#x27;web2py_version&#x27;: &#x27;2.13.3-stable+timestamp.2015.12.24.08.08.22&#x27;, &#x27;HTTP_HOST&#x27;: &#x27;127.0.0.1:8000&#x27;, &#x27;wsgi_multiprocess&#x27;: False, &#x27;wsgi.version&#x27;: (1, 0), &#x27;HTTP_CACHE_CONTROL&#x27;: &#x27;max-age=0&#x27;, &#x27;request_uri&#x27;: &#x27;/PyDoctor/default/agenda/edit/agenda/2&#x27;, &#x27;HTTP_ACCEPT&#x27;: &#x27;text/html,application/xhtml+xml,application/xml;q=0.9,*/*;q=0.8&#x27;, &#x27;http_web2py_component_location&#x27;: &#x27;/PyDoctor/default/agenda/edit/agenda/2&#x27;, &#x27;http_connection&#x27;: &#x27;keep-alive&#x27;, &#x27;local_hosts&#x27;: [&#x27;::1&#x27;, &#x27;127.0.1.1&#x27;, &#x27;::ffff:127.0.0.1&#x27;, &#x27;127.0.0.1&#x27;, &#x27;marian-GA-MA770T-UD3&#x27;], &#x27;wsgi.run_once&#x27;: False, &#x27;wsgi.errors&#x27;: &lt;open file &#x27;&lt;stderr&gt;&#x27;, mode &#x27;w&#x27; at 0x7fb44d0591e0&gt;, &#x27;wsgi.multiprocess&#x27;: False, &#x27;HTTP_ACCEPT_LANGUAGE&#x27;: &#x27;en-US,en;q=0.5&#x27;, &#x27;wsgi_input&#x27;: &lt;socket._fileobject object at 0x7fb407101250&gt;, &#x27;app_folders&#x27;: set([&#x27;/home/marian/web2py/applications/welcome/&#x27;, &#x27;/home/marian/web2py/applications/PyDoctor/&#x27;, &#x27;/home/marian/web2py/applications/admin/&#x27;]), &#x27;remote_port&#x27;: &#x27;54226&#x27;, &#x27;http_web2py_component_element&#x27;: &#x27;c270903102163&#x27;, &#x27;debugging&#x27;: True, &#x27;http_user_agent&#x27;: &#x27;Mozilla/5.0 (X11; Ubuntu; Linux x86_64; rv:44.0) Gecko/20100101 Firefox/44.0&#x27;, &#x27;HTTP_COOKIE&#x27;: &#x27;session_id_welcome=127.0.0.1-88da6817-9ad7-485f-a9ff-f0383d6bb332; session_id_admin=127.0.0.1-aa9a37b6-5398-4952-85b7-cefb941e4789; session_id_pydoctor=127.0.0.1-5b40538b-5d3a-4409-9542-f15a4682b249&#x27;, &#x27;PATH_INFO&#x27;: &#x27;/PyDoctor/default/agenda/edit/agenda/2&#x27;, &#x27;server_protocol&#x27;: &#x27;HTTP/1.1&#x27;, &#x27;QUERY_STRING&#x27;: &#x27;&#x27;, &#x27;cmd_args&#x27;: [], &#x27;http_accept&#x27;: &#x27;text/html,application/xhtml+xml,application/xml;q=0.9,*/*;q=0.8&#x27;, &#x27;HTTP_USER_AGENT&#x27;: &#x27;Mozilla/5.0 (X11; Ubuntu; Linux x86_64; rv:44.0) Gecko/20100101 Firefox/44.0&#x27;, &#x27;HTTP_CONNECTION&#x27;: &#x27;keep-alive&#x27;, &#x27;SERVER_NAME&#x27;: &#x27;marian-GA-MA770T-UD3&#x27;, &#x27;remote_addr&#x27;: &#x27;127.0.0.1&#x27;, &#x27;is_jython&#x27;: False, &#x27;http_accept_language&#x27;: &#x27;en-US,en;q=0.5&#x27;, &#x27;wsgi_version&#x27;: (1, 0), &#x27;wsgi.url_scheme&#x27;: &#x27;http&#x27;, &#x27;is_source&#x27;: True, &#x27;server_port&#x27;: &#x27;8000&#x27;, &#x27;http_accept_encoding&#x27;: &#x27;gzip, deflate&#x27;, &#x27;http_cookie&#x27;: &#x27;session_id_welcome=127.0.0.1-88da6817-9ad7-485f-a9ff-f0383d6bb332; session_id_admin=127.0.0.1-aa9a37b6-5398-4952-85b7-cefb941e4789; session_id_pydoctor=127.0.0.1-5b40538b-5d3a-4409-9542-f15a4682b249&#x27;, &#x27;gluon_parent&#x27;: &#x27;/home/marian/web2py&#x27;, &#x27;server_software&#x27;: &#x27;Rocket 1.2.6&#x27;, &#x27;wsgi.input&#x27;: &lt;socket._fileobject object at 0x7fb407101250&gt;, &#x27;http_host&#x27;: &#x27;127.0.0.1:8000&#x27;, &#x27;path_info&#x27;: &#x27;/PyDoctor/default/vista_expediente/expediente.id\\r\\n1\\r\\n2\\r\\n3\\r\\n4\\r\\n5\\r\\n6\\r\\n7\\r\\n8\\r\\n9\\r\\n10\\r\\n11\\r\\n12\\r\\n13\\r\\n14\\r\\n15\\r\\n16\\r\\n17\\r\\n18\\r\\n19\\r\\n20\\r\\n21\\r\\n22\\r\\n23\\r\\n24\\r\\n25\\r\\n26\\r\\n27\\r\\n28\\r\\n29\\r\\n30\\r\\n31\\r\\n32\\r\\n33\\r\\n34\\r\\n35\\r\\n36\\r\\n37\\r\\n38\\r\\n39\\r\\n40\\r\\n41\\r\\n42\\r\\n43\\r\\n44\\r\\n45\\r\\n46\\r\\n47\\r\\n48\\r\\n49\\r\\n50\\r\\n51\\r\\n52\\r\\n53\\r\\n54\\r\\n55\\r\\n56\\r\\n57\\r\\n58\\r\\n59\\r\\n60\\r\\n61\\r\\n62\\r\\n63\\r\\n64\\r\\n65\\r\\n66\\r\\n67\\r\\n68\\r\\n69\\r\\n70\\r\\n71\\r\\n72\\r\\n73\\r\\n74\\r\\n75\\r\\n76\\r\\n77\\r\\n78\\r\\n79\\r\\n80\\r\\n81\\r\\n82\\r\\n83\\r\\n84\\r\\n85\\r\\n86\\r\\n87\\r\\n88\\r\\n89\\r\\n90\\r\\n91\\r\\n92\\r\\n93\\r\\n94\\r\\n95\\r\\n96\\r\\n97\\r\\n98\\r\\n99\\r\\n100\\r\\n101\\r\\n102\\r\\n103\\r\\n104\\r\\n105\\r\\n106\\r\\n107\\r\\n108\\r\\n109\\r\\n110\\r\\n111\\r\\n112\\r\\n113\\r\\n114\\r\\n115\\r\\n116\\r\\n117\\r\\n118\\r\\n119\\r\\n120\\r\\n121\\r\\n122\\r\\n123\\r\\n124\\r\\n125\\r\\n126\\r\\n127\\r\\n128\\r\\n129\\r\\n130\\r\\n131\\r\\n132\\r\\n133\\r\\n134\\r\\n135\\r\\n136\\r\\n137\\r\\n138\\r\\n139\\r\\n140\\r\\n141\\r\\n142\\r\\n143\\r\\n144\\r\\n145\\r\\n146\\r\\n147\\r\\n148\\r\\n149\\r\\n150\\r\\n151\\r\\n152\\r\\n153\\r\\n154\\r\\n155\\r\\n156\\r\\n157\\r\\n158\\r\\n159\\r\\n160\\r\\n161\\r\\n162\\r\\n163\\r\\n164\\r\\n165\\r\\n166\\r\\n167\\r\\n168\\r\\n169\\r\\n170\\r\\n171\\r\\n172\\r\\n173\\r\\n174\\r\\n175\\r\\n176\\r\\n177\\r\\n178\\r\\n179\\r\\n180\\r\\n&#x27;, &#x27;wsgi.multithread&#x27;: True, &#x27;wsgi_file_wrapper&#x27;: &lt;class wsgiref.util.FileWrapper at 0x7fb44604a390&gt;, &#x27;is_pypy&#x27;: False, &#x27;SCRIPT_NAME&#x27;: &#x27;&#x27;, &#x27;REMOTE_ADDR&#x27;: &#x27;127.0.0.1&#x27;, &#x27;db_sessions&#x27;: set([]), &#x27;http_referer&#x27;: &#x27;http://127.0.0.1:8000/PyDoctor/default/agenda&#x27;, &#x27;query_string&#x27;: &#x27;&#x27;, &#x27;wsgi_run_once&#x27;: False, &#x27;wsgi.file_wrapper&#x27;: &lt;class wsgiref.util.FileWrapper at 0x7fb44604a390&gt;, &#x27;HTTP_ACCEPT_ENCODING&#x27;: &#x27;gzip, deflate&#x27;}&gt;, &#x27;vars&#x27;: &lt;Storage {}&gt;, &#x27;global_settings&#x27;: &lt;Storage {&#x27;debugging&#x27;: True, &#x27;is_pypy&#x27;: False, &#x27;local_hosts&#x27;: [&#x27;::1&#x27;, &#x27;127.0.1.1&#x27;, &#x27;::ffff:127.0.0.1&#x27;, &#x27;127.0.0.1&#x27;, &#x27;marian-GA-MA770T-UD3&#x27;], &#x27;is_source&#x27;: True, &#x27;gluon_parent&#x27;: &#x27;/home/marian/web2py&#x27;, &#x27;is_jython&#x27;: False, &#x27;applications_parent&#x27;: &#x27;/home/marian/web2py&#x27;, &#x27;cmd_options&#x27;: &lt;Values at 0x7fb44601cd40: {&#x27;verbose&#x27;: False, &#x27;ip&#x27;: &#x27;127.0.0.1&#x27;, &#x27;debuglevel&#x27;: 30, &#x27;with_scheduler&#x27;: False, &#x27;ips&#x27;: [&#x27;127.0.1.1&#x27;], &#x27;shutdown_timeout&#x27;: 5, &#x27;taskbar&#x27;: False, &#x27;with_coverage&#x27;: False, &#x27;scheduler_groups&#x27;: None, &#x27;port&#x27;: 8000, &#x27;maxthreads&#x27;: None, &#x27;softcron&#x27;: False, &#x27;server_name&#x27;: &#x27;marian-GA-MA770T-UD3&#x27;, &#x27;bpython&#x27;: False, &#x27;nogui&#x27;: False, &#x27;pid_filename&#x27;: &#x27;httpserver.pid&#x27;, &#x27;print_errors&#x27;: False, &#x27;extcron&#x27;: False, &#x27;runcron&#x27;: False, &#x27;run_system_tests&#x27;: False, &#x27;test&#x27;: None, &#x27;folder&#x27;: &#x27;/home/marian/web2py&#x27;, &#x27;config&#x27;: &#x27;&#x27;, &#x27;minthreads&#x27;: None, &#x27;shell&#x27;: None, &#x27;run&#x27;: &#x27;&#x27;, &#x27;log_filename&#x27;: &#x27;httpserver.log&#x27;, &#x27;profiler_dir&#x27;: None, &#x27;args&#x27;: [&#x27;&#x27;], &#x27;socket_timeout&#x27;: 5, &#x27;ssl_ca_certificate&#x27;: None, &#x27;scheduler&#x27;: None, &#x27;interfaces&#x27;: None, &#x27;ssl_private_key&#x27;: &#x27;&#x27;, &#x27;gae&#x27;: None, &#x27;password&#x27;: &#x27;&lt;ask&gt;&#x27;, &#x27;request_queue_size&#x27;: 5, &#x27;ssl_certificate&#x27;: &#x27;&#x27;, &#x27;cronjob&#x27;: False, &#x27;numthreads&#x27;: None, &#x27;quiet&#x27;: False, &#x27;import_models&#x27;: False, &#x27;timeout&#x27;: 10, &#x27;plain&#x27;: False, &#x27;nobanner&#x27;: False}&gt;, &#x27;app_folders&#x27;: set([&#x27;/home/marian/web2py/applications/welcome/&#x27;, &#x27;/home/marian/web2py/applications/PyDoctor/&#x27;, &#x27;/home/marian/web2py/applications/admin/&#x27;]), &#x27;db_sessions&#x27;: set([]), &#x27;web2py_version&#x27;: &#x27;2.13.3-stable+timestamp.2015.12.24.08.08.22&#x27;, &#x27;cmd_args&#x27;: []}&gt;, &#x27;raw_extension&#x27;: None, &#x27;_body&#x27;: &lt;cStringIO.StringO object at 0x7fb407bfef80&gt;, &#x27;_uuid&#x27;: None, &#x27;raw_args&#x27;: &#x27;edit/agenda/2&#x27;, &#x27;controller&#x27;: &#x27;default&#x27;, &#x27;application&#x27;: &#x27;PyDoctor&#x27;, &#x27;utcnow&#x27;: datetime.datetime(2016, 2, 4, 22, 1, 56, 962391), &#x27;now&#x27;: datetime.datetime(2016, 2, 4, 19, 1, 56, 962320), &#x27;is_local&#x27;: True, &#x27;wsgi&#x27;: &lt;gluon.main.LazyWSGI object at 0x7fb40603d550&gt;, &#x27;is_shell&#x27;: False, &#x27;extension&#x27;: &#x27;html&#x27;, &#x27;cid&#x27;: &#x27;c270903102163&#x27;, &#x27;url&#x27;: &#x27;/PyDoctor/default/agenda/edit/agenda/2&#x27;, &#x27;_get_vars&#x27;: &lt;Storage {}&gt;, &#x27;ajax&#x27;: False, &#x27;is_https&#x27;: False, &#x27;_post_vars&#x27;: &lt;Storage {}&gt;, &#x27;client&#x27;: &#x27;127.0.0.1&#x27;, &#x27;is_restful&#x27;: False, &#x27;is_scheduler&#x27;: False, &#x27;get_vars&#x27;: &lt;Storage {}&gt;, &#x27;folder&#x27;: &#x27;/home/marian/web2py/applications/PyDoctor/&#x27;, &#x27;restful&#x27;: &lt;bound method ?.restful of &lt;Storage {...}&gt;&gt;, &#x27;post_vars&#x27;: &lt;Storage {}&gt;}&gt;&gt;</div></td></tr><tr><td style="font-weight:bold;vertical-align:top;">url</td><td style="vertical-align:top;">:</td><td><div>/PyDoctor/default/agenda/edit/agenda/2</div></td></tr><tr><td style="font-weight:bold;vertical-align:top;">utcnow</td><td style="vertical-align:top;">:</td><td><div>datetime.datetime(2016, 2, 4, 22, 1, 56, 962391)</div></td></tr><tr><td style="font-weight:bold;vertical-align:top;">vars</td><td style="vertical-align:top;">:</td><td><div><table></table></div></td></tr><tr><td style="font-weight:bold;vertical-align:top;">wsgi</td><td style="vertical-align:top;">:</td><td><div>&lt;gluon.main.LazyWSGI object at 0x7fb40603d550&gt;</div></td></tr></table></div>'
tRp58
sS'frames'
p59
(lp60
(dp61
S'file'
p62
S'/home/marian/web2py/gluon/restricted.py'
p63
sS'dump'
p64
(dp65
S'environment'
p66
S"{'A': <class 'gluon.html.A'>, 'ANY_OF': <class 'gluon.validators.ANY_OF'>, 'ASSIGNJS': <function ASSIGNJS>, 'AppConfig': <function AppConfig>, 'Auth': <class 'gluon.tools.Auth'>, 'B': <class 'gluon.html.B'>, 'BEAUTIFY': <class 'gluon.html.BEAUTIFY'>, 'BODY': <class 'gluon.html.BODY'>, 'BR': <class 'gluon.html.BR'>, 'BUTTON': <class 'gluon.html.BUTTON'>, ...}"
p67
sS'ccode'
p68
S'<code object <module> at 0x7fb405eda6b0, file "/...cations/PyDoctor/controllers/default.py", line 3>'
p69
ssS'lnum'
p70
I227
sS'lines'
p71
(dp72
I224
S'            ccode = code'
p73
sI225
S'        else:'
p74
sI226
S'            ccode = compile2(code, layer)'
p75
sI227
S'        exec ccode in environment'
p76
sI228
S'    except HTTP:'
p77
sI229
S'        raise'
p78
sI230
S'    except RestrictedError:'
p79
sI231
S'        # do not encapsulate (obfuscate) the original RestrictedError'
p80
sI222
S'    try:'
p81
sI223
S'        if isinstance(code, types.CodeType):'
p82
ssS'call'
p83
S"(code='# -*- coding: utf-8 -*-\\n# this file is released ...esponse._vars=response._caller(vista_expediente)\\n', environment={'A': <class 'gluon.html.A'>, 'ANY_OF': <class 'gluon.validators.ANY_OF'>, 'ASSIGNJS': <function ASSIGNJS>, 'AppConfig': <function AppConfig>, 'Auth': <class 'gluon.tools.Auth'>, 'B': <class 'gluon.html.B'>, 'BEAUTIFY': <class 'gluon.html.BEAUTIFY'>, 'BODY': <class 'gluon.html.BODY'>, 'BR': <class 'gluon.html.BR'>, 'BUTTON': <class 'gluon.html.BUTTON'>, ...}, layer='/home/marian/web2py/applications/PyDoctor/controllers/default.py')"
p84
sS'func'
p85
S'restricted'
p86
sa(dp87
g62
S'/home/marian/web2py/applications/PyDoctor/controllers/default.py'
p88
sg64
(dp89
sg70
I178
sg71
(dp90
I167
S'    http://..../[app]/default/user/retrieve_password'
p91
sI168
S'    http://..../[app]/default/user/change_password'
p92
sI169
S'    http://..../[app]/default/user/bulk_register'
p93
sI170
S'    use @auth.requires_login()'
p94
sI171
S"        @auth.requires_membership('group name')"
p95
sI172
S"        @auth.requires_permission('read','table name',record_id)"
p96
sI173
S'    to decorate functions that need access control'
p97
sI174
S'    also notice there is http://..../[app]/appadmin/manage/auth to allow administrator to manage users'
p98
sI175
S'    """'
p99
sI176
S'    return dict(form=auth())'
p100
ssg83
S'()'
p101
sg85
S'<module>'
p102
sa(dp103
g62
S'/home/marian/web2py/gluon/globals.py'
p104
sg64
(dp105
S'self'
p106
S'undefined'
p107
sS'f'
S'<function vista_expediente>'
p108
ssg70
I422
sg71
(dp109
I417
S"        self.flash = ''            # used by the default view layout"
p110
sI418
S'        self.meta = Storage()      # used by web2py_ajax.html'
p111
sI419
S'        self.menu = []             # used by the default view layout'
p112
sI420
S'        self.files = []            # used by web2py_ajax.html'
p113
sI421
S'        self._vars = None'
p114
sI422
S'        self._caller = lambda f: f()'
p115
sI423
S'        self._view_environment = None'
p116
sI424
S'        self._custom_commit = None'
p117
sI425
S'        self._custom_rollback = None'
p118
sI426
S"        self.generic_patterns = ['*']"
p119
ssg83
S'(f=<function vista_expediente>)'
p120
sg85
S'<lambda>'
p121
sa(dp122
g62
S'/home/marian/web2py/applications/PyDoctor/controllers/default.py'
p123
sg64
(dp124
S'expte'
p125
g107
sS'global request'
p126
S"<Storage {'_vars': <Storage {}>, 'function': 'vi... of <Storage {...}>>, 'post_vars': <Storage {}>}>"
p127
sS'global SQLFORM'
p128
S"<class 'gluon.sqlhtml.SQLFORM'>"
p129
sS'builtinTrue'
p130
S'True'
p131
sS'request.args'
p132
S'[<Rows (180)>]'
p133
sS'readonly'
p134
g107
sS'db.expediente'
p135
S'<Table expediente (id,numero,caratula,tipoproces...e,created_on,created_by,modified_on,modified_by)>'
p136
sS'global db'
p137
S'<DAL uri="sqlite://storage2.sqlite">'
p138
sS'builtinint'
p139
S"<type 'int'>"
p140
ssg70
I127
sg71
(dp141
I128
S'    links=[]'
p142
sI129
S'    for k in linked_tables:'
p143
sI130
S"        args=['expediente','%s.expediente_id'%k,request.args[0]]"
p144
sI131
S"        url=URL('admin_expedientes',args=args, user_signature=True)"
p145
sI122
S'                            maxtextlengths=maxtextlengths)'
p146
sI123
S'    #dd=info(grid)'
p147
sI124
S'    return locals()'
p148
sI125
S''
sI126
S'def vista_expediente():'
p149
sI127
S'    expte= SQLFORM(db.expediente, int(request.args[0]), readonly=True)'
p150
ssg83
S'()'
p151
sg85
S'vista_expediente'
p152
sasS'pyver'
p153
S'Python 2.7.10: /usr/bin/python (prefix: /usr)'
p154
sS'session'
p155
g57
(S's\xe6\x08\x00\x00<div><table><tr><td style="font-weight:bold;vertical-align:top;">auth</td><td style="vertical-align:top;">:</td><td><div><table><tr><td style="font-weight:bold;vertical-align:top;">expiration</td><td style="vertical-align:top;">:</td><td><div>3600</div></td></tr><tr><td style="font-weight:bold;vertical-align:top;">hmac_key</td><td style="vertical-align:top;">:</td><td><div>ce736771-8937-4e03-a280-da07c9964b05</div></td></tr><tr><td style="font-weight:bold;vertical-align:top;">last_visit</td><td style="vertical-align:top;">:</td><td><div>datetime.datetime(2016, 2, 4, 18, 57, 53, 336543)</div></td></tr><tr><td style="font-weight:bold;vertical-align:top;">remember_me</td><td style="vertical-align:top;">:</td><td><div>False</div></td></tr><tr><td style="font-weight:bold;vertical-align:top;">user</td><td style="vertical-align:top;">:</td><td><div><table><tr><td style="font-weight:bold;vertical-align:top;">email</td><td style="vertical-align:top;">:</td><td><div>egomez@users.com</div></td></tr><tr><td style="font-weight:bold;vertical-align:top;">first_name</td><td style="vertical-align:top;">:</td><td><div>Elena</div></td></tr><tr><td style="font-weight:bold;vertical-align:top;">id</td><td style="vertical-align:top;">:</td><td><div>2L</div></td></tr><tr><td style="font-weight:bold;vertical-align:top;">last_name</td><td style="vertical-align:top;">:</td><td><div>Gomez</div></td></tr><tr><td style="font-weight:bold;vertical-align:top;">registration_id</td><td style="vertical-align:top;">:</td><td><div></div></td></tr><tr><td style="font-weight:bold;vertical-align:top;">registration_key</td><td style="vertical-align:top;">:</td><td><div></div></td></tr><tr><td style="font-weight:bold;vertical-align:top;">reset_password_key</td><td style="vertical-align:top;">:</td><td><div></div></td></tr></table></div></td></tr><tr><td style="font-weight:bold;vertical-align:top;">user_groups</td><td style="vertical-align:top;">:</td><td><div><table><tr><td style="font-weight:bold;vertical-align:top;">2</td><td style="vertical-align:top;">:</td><td><div>user_2</div></td></tr></table></div></td></tr></table></div></td></tr><tr><td style="font-weight:bold;vertical-align:top;">flash</td><td style="vertical-align:top;">:</td><td><div>None</div></td></tr></table></div>'
tRp156
sS'etype'
p157
S"<type 'exceptions.TypeError'>"
p158
sS'date'
p159
S'Thu Feb  4 19:01:57 2016'
p160
sS'response'
p161
g57
(S'so\t\x00\x00<div><table><tr><td style="font-weight:bold;vertical-align:top;">body</td><td style="vertical-align:top;">:</td><td><div>&lt;cStringIO.StringO object at 0x7fb405f00f80&gt;</div></td></tr><tr><td style="font-weight:bold;vertical-align:top;">cookies</td><td style="vertical-align:top;">:</td><td><div><table></table></div></td></tr><tr><td style="font-weight:bold;vertical-align:top;">delimiters</td><td style="vertical-align:top;">:</td><td><div><table><tr><td><div>{{</div></td></tr><tr><td><div>}}</div></td></tr></table></div></td></tr><tr><td style="font-weight:bold;vertical-align:top;">files</td><td style="vertical-align:top;">:</td><td><div><table></table></div></td></tr><tr><td style="font-weight:bold;vertical-align:top;">flash</td><td style="vertical-align:top;">:</td><td><div></div></td></tr><tr><td style="font-weight:bold;vertical-align:top;">form_label_separator</td><td style="vertical-align:top;">:</td><td><div>: </div></td></tr><tr><td style="font-weight:bold;vertical-align:top;">formstyle</td><td style="vertical-align:top;">:</td><td><div>table3cols</div></td></tr><tr><td style="font-weight:bold;vertical-align:top;">generic_patterns</td><td style="vertical-align:top;">:</td><td><div><table><tr><td><div>*</div></td></tr></table></div></td></tr><tr><td style="font-weight:bold;vertical-align:top;">headers</td><td style="vertical-align:top;">:</td><td><div><table><tr><td style="font-weight:bold;vertical-align:top;">X-Powered-By</td><td style="vertical-align:top;">:</td><td><div>web2py</div></td></tr></table></div></td></tr><tr><td style="font-weight:bold;vertical-align:top;">menu</td><td style="vertical-align:top;">:</td><td><div><table></table></div></td></tr><tr><td style="font-weight:bold;vertical-align:top;">meta</td><td style="vertical-align:top;">:</td><td><div><table></table></div></td></tr><tr><td style="font-weight:bold;vertical-align:top;">postprocessing</td><td style="vertical-align:top;">:</td><td><div><table></table></div></td></tr><tr><td style="font-weight:bold;vertical-align:top;">session_id</td><td style="vertical-align:top;">:</td><td><div>None</div></td></tr><tr><td style="font-weight:bold;vertical-align:top;">status</td><td style="vertical-align:top;">:</td><td><div>200</div></td></tr><tr><td style="font-weight:bold;vertical-align:top;">view</td><td style="vertical-align:top;">:</td><td><div>default/vista_expediente.html</div></td></tr></table></div>'
tRp162
sS'locals'
p163
(dp164
ssS'traceback'
p165
S'Traceback (most recent call last):\n  File "/home/marian/web2py/gluon/restricted.py", line 227, in restricted\n    exec ccode in environment\n  File "/home/marian/web2py/applications/PyDoctor/controllers/default.py", line 178, in <module>\n  File "/home/marian/web2py/gluon/globals.py", line 422, in <lambda>\n    self._caller = lambda f: f()\n  File "/home/marian/web2py/applications/PyDoctor/controllers/default.py", line 127, in vista_expediente\n    expte= SQLFORM(db.expediente, int(request.args[0]), readonly=True)\nTypeError: int() argument must be a string or a number, not \'Rows\'\n'
p166
s.