(dp1
S'output'
p2
S"<type 'exceptions.AttributeError'> 'NoneType' object has no attribute 'replace'"
p3
sS'layer'
p4
S'/home/marian/web2py/applications/PyDoctor/views/appadmin.html'
p5
sS'code'
p6
S'response.write(\'<!DOCTYPE html>\\n<!--[if (gt IE 9)|!(IE)]><!--> <html class="no-js" lang="\', escape=False)\nresponse.write(T.accepted_language or \'en\')\nresponse.write(\'"> <!--<![endif]-->\\n  <head>\\n    <meta charset="utf-8">\\n    <!-- www.phpied.com/conditional-comments-block-downloads/ -->\\n    <!-- Always force latest IE rendering engine\\n         (even in intranet) & Chrome Frame\\n         Remove this if you use the .htaccess -->\\n    <meta http-equiv="X-UA-Compatible" content="IE=edge\', escape=False)\nresponse.write(not request.is_local and \',chrome=1\' or \'\')\nresponse.write(\'">\\n    <!--  Mobile Viewport Fix\\n          j.mp/mobileviewport & davidbcalhoun.com/2010/viewport-metatag\\n          device-width: Occupy full width of the screen in its current orientation\\n          initial-scale = 1.0 retains dimensions instead of zooming out if page height > device height\\n          user-scalable = yes allows the user to zoom in -->\\n    <meta name="viewport" content="width=device-width, initial-scale=1.0">\\n    <title>\', escape=False)\nresponse.write(response.title or request.application)\nresponse.write(\'</title>\\n    <!-- http://dev.w3.org/html5/markup/meta.name.html -->\\n    <meta name="application-name" content="\', escape=False)\nresponse.write(request.application)\nresponse.write(\'">\\n    <!-- Speaking of Google, don\\\'t forget to set your site up:\\n         http://google.com/webmasters -->\\n    <meta name="google-site-verification" content="">\\n    <!-- include stylesheets -->\\n    <link rel="stylesheet" href="\', escape=False)\nresponse.write(URL(\'static\',\'css/bootstrap.min.css\'))\nresponse.write(\'"/>\\n    <link rel="stylesheet" href="\', escape=False)\nresponse.write(URL(\'static\',\'css/web2py-bootstrap3.css\'))\nresponse.write(\'"/>\\n    <link rel="shortcut icon" href="\', escape=False)\nresponse.write(URL(\'static\',\'images/favicon.ico\'))\nresponse.write(\'" type="image/x-icon">\\n    <link rel="apple-touch-icon" href="\', escape=False)\nresponse.write(URL(\'static\',\'images/favicon.png\'))\nresponse.write(\'">\\n    <!-- All JavaScript at the bottom, except for Modernizr which enables\\n         HTML5 elements & feature detects -->\\n    <script src="\', escape=False)\nresponse.write(URL(\'static\',\'js/modernizr-2.8.3.min.js\'))\nresponse.write(\'"></script>\\n    <script type="text/javascript" src="\', escape=False)\nresponse.write(URL(request.application,\'static\',\'js/ckeditor/ckeditor.js\'))\nresponse.write(\'"></script>\\n      \\n    <!--[if lt IE 9]>\\n        <script src="\', escape=False)\nresponse.write(URL(\'static\',\'js/respond-1.4.2.min.js\'))\nresponse.write(\'"></script>\\n        <![endif]-->\\n    <!-- Favicons -->\\n    \', escape=False)\nresponse.write(\'<script type="text/javascript"><!--\\n    // These variables are used by the web2py_ajax_init function in web2py_ajax.js (which is loaded below).\\n    var w2p_ajax_confirm_message = "\', escape=False)\nresponse.write(T(\'Are you sure you want to delete this object?\'))\nresponse.write(\'";\\n    var w2p_ajax_disable_with_message = "\', escape=False)\nresponse.write(T(\'Working...\'))\nresponse.write(\'";\\n    var w2p_ajax_date_format = "\', escape=False)\nresponse.write(T(\'%Y-%m-%d\'))\nresponse.write(\'";\\n    var w2p_ajax_datetime_format = "\', escape=False)\nresponse.write(T(\'%Y-%m-%d %H:%M:%S\'))\nresponse.write(\'";\\n    var ajax_error_500 = \\\'\', escape=False)\nresponse.write(T.M(\'An error occured, please [[reload %s]] the page\') % URL(args=request.args, vars=request.get_vars))\nresponse.write("\'\\n    //--></script>\\n", escape=False)\nresponse.files.insert(0,URL(\'static\',\'js/jquery.js\'))\nresponse.files.insert(1,URL(\'static\',\'css/calendar.css\'))\nresponse.files.insert(2,URL(\'static\',\'js/calendar.js\'))\nresponse.files.insert(3,URL(\'static\',\'js/web2py.js\'))\nresponse.include_meta()\nresponse.include_files()\nresponse.write(\'\\n\', escape=False)\nresponse.write(\' <!-- this includes jquery.js, calendar.js/.css and web2py.js -->\\n    \', escape=False)\nresponse.write(\'\\n    \', escape=False)\n# using sidebars need to know what sidebar you want to use\nmc0 = \'col-md-12\'\nmc1 = \'col-md-9\'\nmc2 = \'col-md-6\'\nleft_sidebar_enabled = globals().get(\'left_sidebar_enabled\', False)\nright_sidebar_enabled = globals().get(\'right_sidebar_enabled\', False)\nmiddle_column = {0: mc0, 1: mc1, 2: mc2}[\n(left_sidebar_enabled and 1 or 0)+(right_sidebar_enabled and 1 or 0)]\nresponse.write(\'\\n  </head>\\n  <body>\\n    <!--[if lt IE 8]><p class="browserupgrade">You are using an <strong>outdated</strong> browser. Please <a href="http://browsehappy.com/">upgrade your browser</a> to improve your experience.</p><![endif]-->\\n    <div class="w2p_flash alert alert-dismissable">\', escape=False)\nresponse.write(response.flash or \'\')\nresponse.write(\'</div>\\n    <!-- Navbar ======================================= -->\\n    <nav class="navbar navbar-default navbar-fixed-top" role="navigation">\\n      <div class="container-fluid">\\n        <div class="navbar-header">\\n          <button type="button" class="navbar-toggle" data-toggle="collapse" data-target=".navbar-collapse">\\n            <span class="sr-only">Toggle navigation</span>\\n            <span class="icon-bar"></span>\\n            <span class="icon-bar"></span>\\n            <span class="icon-bar"></span>\\n          </button>\\n          \', escape=False)\nresponse.write(response.logo or \'\')\nresponse.write(\'\\n        </div>\\n        <div class="collapse navbar-collapse navbar-ex1-collapse">\\n          <ul class="nav navbar-nav navbar-right">\\n            \', escape=False)\nresponse.write(\'auth\' in globals() and auth.navbar(\'Welcome\',mode=\'dropdown\') or \'\')\nresponse.write(\'\\n          </ul>\\n          \', escape=False)\nif response.menu:\n    response.write(\'\\n          \', escape=False)\n    response.write(MENU(response.menu, _class=\'nav navbar-nav\',li_class=\'dropdown\',ul_class=\'dropdown-menu\'))\n    response.write(\'\\n          \', escape=False)\n    pass\nresponse.write(\'\\n        </div>\\n      </div>\\n    </nav>\\n    <!-- Masthead ===================================== -->    \\n    \', escape=False)\nresponse.write(\'\\n    \', escape=False)\nresponse.write(\'\\n    <!-- Main ========================================= -->\\n    <!-- Begin page content -->\\n    <div class="container-fluid main-container">\\n      \', escape=False)\nif left_sidebar_enabled:\n    response.write(\'\\n        <div class="col-md-3 left-sidebar">\\n            \', escape=False)\n    response.write(\'\\n            <h3>Left Sidebar</h3>\\n            <p></p>\\n            \', escape=False)\n    response.write(\'\\n        </div>\\n      \', escape=False)\n    pass\nresponse.write(\'\\n\\n      <div class="\', escape=False)\nresponse.write(middle_column)\nresponse.write(\'">\\n        \', escape=False)\nresponse.write(\'\\n        \', escape=False)\nresponse.write(\'\\n<script><!--\\n    jQuery(document).ready(function(){\\n    jQuery("table.sortable tbody tr").mouseover( function() {\\n    jQuery(this).addClass("highlight"); }).mouseout( function() {\\n    jQuery(this).removeClass("highlight"); });\\n    jQuery(\\\'table.sortable tbody tr:odd\\\').addClass(\\\'odd\\\');\\n    jQuery(\\\'table.sortable tbody tr:even\\\').addClass(\\\'even\\\');\\n});\\n//--></script>\\n\\n\', escape=False)\nif request.function==\'index\':\n    response.write(\'\\n<h2>\', escape=False)\n    response.write(T("Available Databases and Tables"))\n    response.write(\'</h2>\\n  \', escape=False)\n    if not databases:\n        response.write(T("No databases in this application"))\n        pass\n    response.write(\'\\n  <ul class="nav nav-tabs" id="myTab">\\n  <li class="active" ><a href="#alltables" data-toggle="tab">Tables</a></li>\\n  <li><a href="#hooks" data-toggle="tab">Hooks</a></li>\\n  </ul>\\n  <div class="tab-content">\\n      <div class="tab-pane active" id="alltables">\\n        <table class="table">\\n          \', escape=False)\n    for db in sorted(databases):\n        response.write(\'\\n            \', escape=False)\n        for table in databases[db].tables:\n            response.write(\'\\n              \', escape=False)\n            qry=\'%s.%s.id>0\'%(db,table)\n            response.write(\'\\n              \', escape=False)\n            tbl=databases[db][table]\n            response.write(\'\\n              \', escape=False)\n            if hasattr(tbl,\'_primarykey\'):\n                response.write(\'\\n                \', escape=False)\n                if tbl._primarykey:\n                    response.write(\'\\n                    \', escape=False)\n                    firstkey=tbl[tbl._primarykey[0]]\n                    response.write(\'\\n                    \', escape=False)\n                    if firstkey.type in [\'string\',\'text\']:\n                        response.write(\'\\n                      \', escape=False)\n                        qry=\'%s.%s.%s!=""\'%(db,table,firstkey.name)\n                        response.write(\'\\n                    \', escape=False)\n                    else:\n                        response.write(\'\\n                      \', escape=False)\n                        qry=\'%s.%s.%s>0\'%(db,table,firstkey.name)\n                        response.write(\'\\n                    \', escape=False)\n                        pass\n                    response.write(\'\\n                \', escape=False)\n                else:\n                    response.write(\'\\n                     \', escape=False)\n                    qry=\'\'\n                    response.write(\'\\n                \', escape=False)\n                    pass\n                response.write(\'\\n              \', escape=False)\n                pass\n            response.write(\'\\n          <tr>\\n            <th style="font-size: 1.75em;">\\n              \', escape=False)\n            response.write(A("%s.%s" % (db,table),_href=URL(\'select\',args=[db],vars=dict(query=qry))))\n            response.write(\'\\n            </th>\\n            <td>\\n              \', escape=False)\n            response.write(A(str(T(\'New Record\')),_href=URL(\'insert\',args=[db,table]),_class="btn btn-default"))\n            response.write(\'\\n            </td>\\n          </tr>\\n          \', escape=False)\n            pass\n        response.write(\'\\n          \', escape=False)\n        pass\n    response.write(\'\\n        </table>\\n      </div>\\n      <div class="tab-pane" id="hooks">\\n      \', escape=False)\n    response.write(LOAD(\'appadmin\', \'hooks\', ajax=True))\n    response.write(\'\\n      </div>\\n  </div>\\n\', escape=False)\nelif request.function==\'select\':\n    response.write(\'\\n  <h2>\', escape=False)\n    response.write(XML(str(T("Database %s select"))%A(request.args[0],_href=URL(\'index\'))))\n    response.write(\'\\n  </h2>\\n  \', escape=False)\n    if tb:\n        response.write(\'\\n  <h3>\', escape=False)\n        response.write(T(\'Traceback\'))\n        response.write(\'</h3>\\n  <pre>\\n    \', escape=False)\n        response.write(tb)\n        response.write(\'\\n  </pre>\\n  \', escape=False)\n        pass\n    response.write(\'\\n  \', escape=False)\n    if table:\n        response.write(\'\\n  \', escape=False)\n        response.write(A(str(T(\'New Record\')),_href=URL(\'insert\',args=[request.args[0],table]),_class="btn btn-default"))\n        response.write(\'<br/><br/>\\n    <h3>\', escape=False)\n        response.write(T("Rows in Table"))\n        response.write(\'</h3><br/>\\n   \', escape=False)\n    else:\n        response.write(\'\\n    <h3>\', escape=False)\n        response.write(T("Rows selected"))\n        response.write(\'</h3><br/>\\n   \', escape=False)\n        pass\n    response.write(\'\\n   \', escape=False)\n    response.write(form)\n    response.write(\'\\n   <p>\', escape=False)\n    response.write(T(\'The "query" is a condition like "db.table1.field1==\\\'value\\\'". Something like "db.table1.field1==db.table2.field2" results in a SQL JOIN.\'))\n    response.write(\'<br/>\\n      \', escape=False)\n    response.write(T(\'Use (...)&(...) for AND, (...)|(...) for OR, and ~(...)  for NOT to build more complex queries.\'))\n    response.write(\'<br/>\\n      \', escape=False)\n    response.write(T(\'"update" is an optional expression like "field1=\\\'newvalue\\\'". You cannot update or delete the results of a JOIN\'))\n    response.write(\'</p>\\n    <br/><br/>\\n    <h4>\', escape=False)\n    response.write(T("%s selected", nrows))\n    response.write(\'</h4>\\n    \', escape=False)\n    if start>0:\n        response.write(A(T(\'previous %s rows\') % step,_href=URL(\'select\',args=request.args[0],vars=dict(start=start-step)),_class="btn btn-default"))\n        pass\n    response.write(\'\\n    \', escape=False)\n    if stop<nrows:\n        response.write(A(T(\'next %s rows\') % step,_href=URL(\'select\',args=request.args[0],vars=dict(start=start+step)),_class="btn btn-default"))\n        pass\n    response.write(\'\\n    \', escape=False)\n    if rows:\n        response.write(\'\\n       <div style="overflow:auto; width:80%;">\\n       \', escape=False)\n        linkto = lambda f, t, r: URL(\'update\', args=[request.args[0], r, f]) if f else "#"\n        response.write(\'\\n       \', escape=False)\n        upload=URL(\'download\',args=request.args[0])\n        response.write(\'\\n       \', escape=False)\n        response.write(SQLTABLE(rows,linkto,upload,orderby=True,_class=\'sortable\'))\n        response.write(\'\\n       </div>\\n    \', escape=False)\n        pass\n    response.write(\'\\n    <br/><br/><h3>\', escape=False)\n    response.write(T("Import/Export"))\n    response.write(\'</h3><br/>\\n    <a href="\', escape=False)\n    response.write(URL(\'csv\',args=request.args[0],vars=dict(query=query)))\n    response.write(\'" class="btn btn-default">\', escape=False)\n    response.write(T("export as csv file"))\n    response.write(\'</a>\\n  \', escape=False)\n    response.write(formcsv or \'\')\n    response.write(\'\\n\\n\', escape=False)\nelif request.function==\'insert\':\n    response.write(\'\\n  <h2>\', escape=False)\n    response.write(T("Database"))\n    response.write(\' \', escape=False)\n    response.write(A(request.args[0],_href=URL(\'index\')))\n    response.write(\'\\n    \', escape=False)\n    if hasattr(table,\'_primarykey\'):\n        response.write(\'\\n      \', escape=False)\n        fieldname=table._primarykey[0]\n        response.write(\'\\n      \', escape=False)\n        dbname=request.args[0]\n        response.write(\'\\n      \', escape=False)\n        tablename=request.args[1]\n        response.write(\'\\n      \', escape=False)\n        cond = table[fieldname].type in [\'string\',\'text\'] and \'!=""\' or \'>0\'\n        response.write(\'\\n      \', escape=False)\n        response.write(T("Table"))\n        response.write(\' \', escape=False)\n        response.write(A(tablename,_href=URL(\'select\',args=dbname,vars=dict(query=\'%s.%s.%s%s\'%(dbname,tablename,fieldname,cond)))))\n        response.write(\'\\n    \', escape=False)\n    else:\n        response.write(\'\\n      \', escape=False)\n        response.write(T("Table"))\n        response.write(\' \', escape=False)\n        response.write(A(request.args[1],_href=URL(\'select\',args=request.args[0],vars=dict(query=\'%s.%s.id>0\'%tuple(request.args[:2])))))\n        response.write(\'\\n    \', escape=False)\n        pass\n    response.write(\'\\n  </h2>\\n  <h3>\', escape=False)\n    response.write(T("New Record"))\n    response.write(\'</h3><br/>\\n  \', escape=False)\n    response.write(form)\n    response.write(\'\\n\', escape=False)\nelif request.function==\'update\':\n    response.write(\'\\n  <h2>\', escape=False)\n    response.write(T("Database"))\n    response.write(\' \', escape=False)\n    response.write(A(request.args[0],_href=URL(\'index\')))\n    response.write(\'\\n    \', escape=False)\n    if hasattr(table,\'_primarykey\'):\n        response.write(\'\\n      \', escape=False)\n        fieldname=request.vars.keys()[0]\n        response.write(\'\\n      \', escape=False)\n        dbname=request.args[0]\n        response.write(\'\\n      \', escape=False)\n        tablename=request.args[1]\n        response.write(\'\\n      \', escape=False)\n        cond = table[fieldname].type in [\'string\',\'text\'] and \'!=""\' or \'>0\'\n        response.write(\'\\n      \', escape=False)\n        response.write(T("Table"))\n        response.write(\' \', escape=False)\n        response.write(A(tablename,_href=URL(\'select\',args=dbname,vars=dict(query=\'%s.%s.%s%s\'%(dbname,tablename,fieldname,cond)))))\n        response.write(\'\\n      \', escape=False)\n        response.write(T("Record"))\n        response.write(\' \', escape=False)\n        response.write(A(\'%s=%s\'%request.vars.items()[0],_href=URL(\'update\',args=request.args[:2],vars=request.vars)))\n        response.write(\'\\n    \', escape=False)\n    else:\n        response.write(\'\\n      \', escape=False)\n        response.write(T("Table"))\n        response.write(\' \', escape=False)\n        response.write(A(request.args[1],_href=URL(\'select\',args=request.args[0],vars=dict(query=\'%s.%s.id>0\'%tuple(request.args[:2])))))\n        response.write(\'\\n      \', escape=False)\n        response.write(T("Record id"))\n        response.write(\' \', escape=False)\n        response.write(A(request.args[2],_href=URL(\'update\',args=request.args[:3])))\n        response.write(\'\\n    \', escape=False)\n        pass\n    response.write(\'\\n  </h2>\\n  <h3>\', escape=False)\n    response.write(T("Edit current record"))\n    response.write(\'</h3><br/><br/>\', escape=False)\n    response.write(form)\n    response.write(\'\\n\\n\', escape=False)\nelif request.function==\'state\':\n    response.write(\'\\n  <h2>\', escape=False)\n    response.write(T("Internal State"))\n    response.write(\'</h2>\\n  <h3>\', escape=False)\n    response.write(T("Current request"))\n    response.write(\'</h3>\\n  \', escape=False)\n    response.write(BEAUTIFY(request))\n    response.write(\'\\n  <br/><h3>\', escape=False)\n    response.write(T("Current response"))\n    response.write(\'</h3>\\n  \', escape=False)\n    response.write(BEAUTIFY(response))\n    response.write(\'\\n  <br/><h3>\', escape=False)\n    response.write(T("Current session"))\n    response.write(\'</h3>\\n  \', escape=False)\n    response.write(BEAUTIFY(session))\n    response.write(\'\\n\\n\\n\', escape=False)\nelif request.function == \'ccache\':\n    response.write(\'\\n<h2>\', escape=False)\n    T("Cache")\n    response.write(\'</h2>\\n<div class="list">\\n\\n  <div class="list-header">\\n    <h3>\', escape=False)\n    T("Statistics")\n    response.write(\'</h3>\\n  </div>\\n\\n  <div class="content">\\n    <h4>\', escape=False)\n    response.write(T("Overview"))\n    response.write(\'</h4>\\n    <p>\', escape=False)\n    response.write(T.M("Number of entries: **%s**", total[\'entries\']))\n    response.write(\'</p>\\n    \', escape=False)\n    if total[\'entries\'] > 0:\n        response.write(\'\\n    <p>\', escape=False)\n        response.write(T.M("Hit Ratio: **%(ratio)s%%** (**%(hits)s** %%{hit(hits)} and **%(misses)s** %%{miss(misses)})",\n        dict( ratio=total[\'ratio\'], hits=total[\'hits\'], misses=total[\'misses\'])))\n        response.write(\'\\n    </p>\\n    <p>\\n      \', escape=False)\n        response.write(T("Size of cache:"))\n        response.write(\'\\n      \', escape=False)\n        if object_stats:\n            response.write(\'\\n        \', escape=False)\n            response.write(T.M("**%(items)s** %%{item(items)}, **%(bytes)s** %%{byte(bytes)}", dict(items=total[\'objects\'], bytes=total[\'bytes\'])))\n            response.write(\'\\n        \', escape=False)\n            if total[\'bytes\'] > 524287:\n                response.write(\'\\n          \', escape=False)\n                response.write(T.M("(**%.0d MB**)", total[\'bytes\'] / 1048576))\n                response.write(\'\\n        \', escape=False)\n                pass\n            response.write(\'\\n      \', escape=False)\n        else:\n            response.write(\'\\n        \', escape=False)\n            response.write(T.M("**not available** (requires the Python [[guppy http://pypi.python.org/pypi/guppy/ popup]] library)"))\n            response.write(\'\\n      \', escape=False)\n            pass\n        response.write(\'\\n    </p>\\n    <p>\\n      \', escape=False)\n        response.write(T.M("Cache contains items up to **%(hours)02d** %%{hour(hours)} **%(min)02d** %%{minute(min)} **%(sec)02d** %%{second(sec)} old.",\n        dict(hours=total[\'oldest\'][0], min=total[\'oldest\'][1], sec=total[\'oldest\'][2])))\n        response.write(\'\\n    </p>\\n    \', escape=False)\n        response.write(BUTTON(T(\'Cache Keys\'), _onclick=\'jQuery("#all_keys").toggle().toggleClass( "w2p_hidden" );\'))\n        response.write(\'\\n    <div class="w2p_hidden" id="all_keys">\\n      \', escape=False)\n        response.write(total[\'keys\'])\n        response.write(\'\\n    </div>\\n    <br />\\n    \', escape=False)\n        pass\n    response.write(\'\\n\\n    <h4>\', escape=False)\n    response.write(T("RAM"))\n    response.write(\'</h4>\\n    <p>\', escape=False)\n    response.write(T.M("Number of entries: **%s**", ram[\'entries\']))\n    response.write(\'</p>\\n    \', escape=False)\n    if ram[\'entries\'] > 0:\n        response.write(\'\\n    <p>\', escape=False)\n        response.write(T.M("Hit Ratio: **%(ratio)s%%** (**%(hits)s** %%{hit(hits)} and **%(misses)s** %%{miss(misses)})",\n        dict( ratio=ram[\'ratio\'], hits=ram[\'hits\'], misses=ram[\'misses\'])))\n        response.write(\'\\n    </p>\\n    <p>\\n      \', escape=False)\n        response.write(T("Size of cache:"))\n        response.write(\'\\n      \', escape=False)\n        if object_stats:\n            response.write(\'\\n        \', escape=False)\n            response.write(T.M("**%(items)s** items, **%(bytes)s** %%{byte(bytes)}", dict(items=ram[\'objects\'], bytes=ram[\'bytes\'])))\n            response.write(\'\\n        \', escape=False)\n            if ram[\'bytes\'] > 524287:\n                response.write(\'\\n          \', escape=False)\n                response.write(T.M("(**%.0d MB**)", ram[\'bytes\'] / 10485576))\n                response.write(\'\\n        \', escape=False)\n                pass\n            response.write(\'\\n      \', escape=False)\n        else:\n            response.write(\'\\n        \', escape=False)\n            response.write(T.M("``**not available**``:red (requires the Python [[guppy http://pypi.python.org/pypi/guppy/ popup]] library)"))\n            response.write(\'\\n      \', escape=False)\n            pass\n        response.write(\'\\n    </p>\\n    <p>\\n      \', escape=False)\n        response.write(T.M("RAM contains items up to **%(hours)02d** %%{hour(hours)} **%(min)02d** %%{minute(min)} **%(sec)02d** %%{second(sec)} old.",\n        dict(hours=ram[\'oldest\'][0], min=ram[\'oldest\'][1], sec=ram[\'oldest\'][2])))\n        response.write(\'\\n    </p>\\n    \', escape=False)\n        response.write(BUTTON(T(\'RAM Cache Keys\'), _onclick=\'jQuery("#ram_keys").toggle().toggleClass( "w2p_hidden" );\'))\n        response.write(\'\\n    <div class="w2p_hidden" id="ram_keys">\\n      \', escape=False)\n        response.write(ram[\'keys\'])\n        response.write(\'\\n    </div>\\n    <br />\\n    \', escape=False)\n        pass\n    response.write(\'\\n\\n    <h4>\', escape=False)\n    response.write(T("DISK"))\n    response.write(\'</h4>\\n    <p>\', escape=False)\n    response.write(T.M("Number of entries: **%s**", disk[\'entries\']))\n    response.write(\'</p>\\n    \', escape=False)\n    if disk[\'entries\'] > 0:\n        response.write(\'\\n      <p>\\n      \', escape=False)\n        response.write(T.M("Hit Ratio: **%(ratio)s%%** (**%(hits)s** %%{hit(hits)} and **%(misses)s** %%{miss(misses)})",\n        dict(ratio=disk[\'ratio\'], hits=disk[\'hits\'], misses=disk[\'misses\'])))\n        response.write(\'\\n      </p>\\n      <p>\\n      \', escape=False)\n        response.write(T("Size of cache:"))\n        response.write(\'\\n      \', escape=False)\n        if object_stats:\n            response.write(\'\\n        \', escape=False)\n            response.write(T.M("**%(items)s** %%{item(items)}, **%(bytes)s** %%{byte(bytes)}", dict( items=disk[\'objects\'], bytes=disk[\'bytes\'])))\n            response.write(\'\\n        \', escape=False)\n            if disk[\'bytes\'] > 524287:\n                response.write(\'\\n          \', escape=False)\n                response.write(T.M("(**%.0d MB**)", disk[\'bytes\'] / 1048576))\n                response.write(\'\\n        \', escape=False)\n                pass\n            response.write(\'\\n      \', escape=False)\n        else:\n            response.write(\'\\n        \', escape=False)\n            response.write(T.M("``**not available**``:red (requires the Python [[guppy http://pypi.python.org/pypi/guppy/ popup]] library)"))\n            response.write(\'\\n      \', escape=False)\n            pass\n        response.write(\'\\n      </p>\\n      <p>\\n      \', escape=False)\n        response.write(T.M("DISK contains items up to **%(hours)02d** %%{hour(hours)} **%(min)02d** %%{minute(min)} **%(sec)02d** %%{second(sec)} old.",\n        dict(hours=disk[\'oldest\'][0], min=disk[\'oldest\'][1], sec=disk[\'oldest\'][2])))\n        response.write(\'\\n      </p>\\n      \', escape=False)\n        response.write(BUTTON(T(\'Disk Cache Keys\'), _onclick=\'jQuery("#disk_keys").toggle().toggleClass( "w2p_hidden" );\'))\n        response.write(\'\\n      <div class="w2p_hidden" id="disk_keys">\\n      \', escape=False)\n        response.write(disk[\'keys\'])\n        response.write(\'\\n      </div>\\n      <br />\\n    \', escape=False)\n        pass\n    response.write(\'\\n  </div>\\n\\n  <div class="list-header">\\n    <h3>\', escape=False)\n    response.write(T("Manage Cache"))\n    response.write(\'</h3>\\n  </div>\\n\\n  <div class="content">\\n    <p>\\n      \', escape=False)\n    response.write(form)\n    response.write(\'\\n    </p>\\n  </div>\\n</div>\\n<div class="clear"></div>\\n\', escape=False)\n    pass\nresponse.write(\'\\n\\n\', escape=False)\nif request.function==\'graph_model\':\n    response.write(\'\\n<h2>\', escape=False)\n    response.write(T("Graph Model"))\n    response.write(\'</h2>\\n  \', escape=False)\n    if not pgv:\n        response.write(\'\\n    \', escape=False)\n        response.write(T(\'pygraphviz library not found\'))\n        response.write(\'\\n  \', escape=False)\n    elif not databases:\n        response.write(\'\\n    \', escape=False)\n        response.write(T("No databases in this application"))\n        response.write(\'\\n  \', escape=False)\n    else:\n        response.write(\'\\t   \\n    <div class="btn-group">\\n      <a class="btn dropdown-toggle" data-toggle="dropdown" href="#">\\n        <i class="icon-download"></i> \', escape=False)\n        response.write(T(\'Save model as...\'))\n        response.write(\'\\n        <span class="caret"></span>\\n      </a>\\n      <ul class="dropdown-menu">\\n          <li><a href="\', escape=False)\n        response.write(URL(\'appadmin\', \'bg_graph_model\', args=[\'png\']))\n        response.write(\'">png</a></li>\\n          <li><a href="\', escape=False)\n        response.write(URL(\'appadmin\', \'bg_graph_model\', args=[\'svg\']))\n        response.write(\'">svg</a></li>\\n          <li><a href="\', escape=False)\n        response.write(URL(\'appadmin\', \'bg_graph_model\', args=[\'pdf\']))\n        response.write(\'">pdf</a></li>\\n          <li><a href="\', escape=False)\n        response.write(URL(\'appadmin\', \'bg_graph_model\', args=[\'ps\']))\n        response.write(\'">ps</a></li>\\n          <li><a href="\', escape=False)\n        response.write(URL(\'appadmin\', \'bg_graph_model\', args=[\'dot\']))\n        response.write(\'">dot</a></li>\\n      </ul>\\n    </div>\\n    <br />\\n    \', escape=False)\n        response.write(IMG(_src=URL(\'appadmin\', \'bg_graph_model\')))\n        response.write(\'\\n  \', escape=False)\n        pass\n    response.write(\'\\n\', escape=False)\n    pass\nresponse.write(\'\\n\\n\', escape=False)\nif request.function == \'manage\':\n    response.write(\'\\n<h2>\', escape=False)\n    response.write(heading)\n    response.write(\'</h2>\\n<ul class="nav nav-tabs">\\n  \', escape=False)\n    for k, tablename in enumerate(tablenames):\n        response.write(\'\\n  <li\', escape=False)\n        response.write(XML(\' class="active"\') if k == 0 else \'\')\n        response.write(\'>\\n    <a href="#table-\', escape=False)\n        response.write(tablename)\n        response.write(\'" data-toggle="tab">\', escape=False)\n        response.write(labels[k])\n        response.write(\'</a>\\n  </li>\\n  \', escape=False)\n        pass\n    response.write(\'\\n</ul>\\n\\n<div class="tab-content">\\n  \', escape=False)\n    for k, tablename in enumerate(tablenames):\n        response.write(\'\\n  <div class="tab-pane\', escape=False)\n        response.write(XML(\' active\') if k == 0 else \'\')\n        response.write(\'" id="table-\', escape=False)\n        response.write(tablename)\n        response.write(\'">\\n    \', escape=False)\n        response.write(LOAD(f=\'manage.load\', args=[request.args(0), k], ajax=True))\n        response.write(\'\\n  </div>\\n  \', escape=False)\n        pass\n    response.write(\'\\n</div>\\n\', escape=False)\n    pass\nresponse.write(\'\\n\', escape=False)\nresponse.write(\'\\n        \', escape=False)\nresponse.write(\'\\n      </div>\\n\\n      \', escape=False)\nif right_sidebar_enabled:\n    response.write(\'\\n        <div class="col-md-3">\\n            \', escape=False)\n    response.write(\'\\n            <h3>Right Sidebar</h3>\\n            <p></p>\\n            \', escape=False)\n    response.write(\'\\n        </div>\\n      \', escape=False)\n    pass\nresponse.write(\'\\n\\n    </div>\\n\\n    \', escape=False)\nresponse.write(\' <!-- this is default footer -->      \\n    <footer class="footer">\\n      <div class="container-fluid">\\n        <div class="copyright pull-left">\', escape=False)\nresponse.write(T(\'Copyright\'))\nresponse.write(\' &#169; \', escape=False)\nresponse.write(request.now.year)\nresponse.write(\'</div>\\n          <div id="poweredBy" class="pull-right">\\n            \', escape=False)\nresponse.write(T(\'Powered by\'))\nresponse.write(\'\\n            <a href="http://www.web2py.com/">web2py</a>\\n          </div>\\n      </div>\\n    </footer>\\n    \', escape=False)\nresponse.write(\'\\n    <!-- The javascript =============================== -->\\n    <script src="\', escape=False)\nresponse.write(URL(\'static\',\'js/bootstrap.min.js\'))\nresponse.write(\'"></script>\\n    <script src="\', escape=False)\nresponse.write(URL(\'static\',\'js/web2py-bootstrap3.js\'))\nresponse.write(\'"></script>\\n    \', escape=False)\nresponse.write(\'\\n    \', escape=False)\nif response.google_analytics_id:\n    response.write(\'\\n    <!-- Analytics ==================================== -->\\n    <script src="\', escape=False)\n    response.write(URL(\'static\',\'js/analytics.min.js\'))\n    response.write(\'"></script>\\n    <script type="text/javascript">\\n      analytics.initialize({\\n      \\\'Google Analytics\\\':{trackingId:\\\'\', escape=False)\n    response.write(response.google_analytics_id)\n    response.write("\'}\\n      });\\n    </script>\\n    ", escape=False)\n    pass\nresponse.write(\'\\n    <!-- Share ============================y============ -->\\n    <script src="\', escape=False)\nresponse.write(URL(\'static\',\'js/share.js\',vars=dict(static=URL(\'static\',\'images\'))))\nresponse.write(\'"></script>\\n      \', escape=False)\nif DEVELOPMENT_MENU:\n    response.write(\'\\n      \', escape=False)\n    response.write(BEAUTIFY(response._vars))\n    response.write(\'\\n      \', escape=False)\n    pass\nresponse.write(\'\\n    <!-- This makes autocomplete look like any other form-control wowwww!  -->\\n    <script>\\n        $(".string").addClass("form-control")\\n    </script>\\n  </body>\\n</html>\\n\', escape=False)'
p7
sS'snapshot'
p8
(dp9
S'exception'
p10
(dp11
S'__hash__'
p12
S"<method-wrapper '__hash__' of exceptions.AttributeError object>"
p13
sS'__setattr__'
p14
S"<method-wrapper '__setattr__' of exceptions.AttributeError object>"
p15
sS'__reduce_ex__'
p16
S'<built-in method __reduce_ex__ of exceptions.AttributeError object>'
p17
sS'__getslice__'
p18
S"<method-wrapper '__getslice__' of exceptions.AttributeError object>"
p19
sS'__getitem__'
p20
S"<method-wrapper '__getitem__' of exceptions.AttributeError object>"
p21
sS'__setstate__'
p22
S'<built-in method __setstate__ of exceptions.AttributeError object>'
p23
sS'args'
p24
S'("\'NoneType\' object has no attribute \'replace\'",)'
p25
sS'__reduce__'
p26
S'<built-in method __reduce__ of exceptions.AttributeError object>'
p27
sS'__str__'
p28
S"<method-wrapper '__str__' of exceptions.AttributeError object>"
p29
sS'__format__'
p30
S'<built-in method __format__ of exceptions.AttributeError object>'
p31
sS'__getattribute__'
p32
S"<method-wrapper '__getattribute__' of exceptions.AttributeError object>"
p33
sS'__class__'
p34
S"<type 'exceptions.AttributeError'>"
p35
sS'__unicode__'
p36
S'<built-in method __unicode__ of exceptions.AttributeError object>'
p37
sS'__delattr__'
p38
S"<method-wrapper '__delattr__' of exceptions.AttributeError object>"
p39
sS'__subclasshook__'
p40
S'<built-in method __subclasshook__ of type object>'
p41
sS'__repr__'
p42
S"<method-wrapper '__repr__' of exceptions.AttributeError object>"
p43
sS'__dict__'
p44
S'{}'
p45
sS'__sizeof__'
p46
S'<built-in method __sizeof__ of exceptions.AttributeError object>'
p47
sS'__doc__'
p48
S"'Attribute not found.'"
p49
sS'__init__'
p50
S"<method-wrapper '__init__' of exceptions.AttributeError object>"
p51
sS'__new__'
p52
S'<built-in method __new__ of type object>'
p53
ssS'evalue'
p54
S"'NoneType' object has no attribute 'replace'"
p55
sS'request'
p56
cgluon.html
XML_unpickle
p57
(S's\xe0Z\x00\x00<div><table><tr><td style="font-weight:bold;vertical-align:top;">ajax</td><td style="vertical-align:top;">:</td><td><div>False</div></td></tr><tr><td style="font-weight:bold;vertical-align:top;">application</td><td style="vertical-align:top;">:</td><td><div>PyDoctor</div></td></tr><tr><td style="font-weight:bold;vertical-align:top;">args</td><td style="vertical-align:top;">:</td><td><div><table><tr><td><div>db</div></td></tr></table></div></td></tr><tr><td style="font-weight:bold;vertical-align:top;">cid</td><td style="vertical-align:top;">:</td><td><div>None</div></td></tr><tr><td style="font-weight:bold;vertical-align:top;">client</td><td style="vertical-align:top;">:</td><td><div>127.0.0.1</div></td></tr><tr><td style="font-weight:bold;vertical-align:top;">controller</td><td style="vertical-align:top;">:</td><td><div>appadmin</div></td></tr><tr><td style="font-weight:bold;vertical-align:top;">cookies</td><td style="vertical-align:top;">:</td><td><div><table><tr><td style="font-weight:bold;vertical-align:top;">session_id_admin</td><td style="vertical-align:top;">:</td><td><div>127.0.0.1-2a4b7f5e-d835-4d83-86c6-914407c2d4ee<table><tr><td style="font-weight:bold;vertical-align:top;">comment</td><td style="vertical-align:top;">:</td><td><div></div></td></tr><tr><td style="font-weight:bold;vertical-align:top;">domain</td><td style="vertical-align:top;">:</td><td><div></div></td></tr><tr><td style="font-weight:bold;vertical-align:top;">expires</td><td style="vertical-align:top;">:</td><td><div></div></td></tr><tr><td style="font-weight:bold;vertical-align:top;">httponly</td><td style="vertical-align:top;">:</td><td><div></div></td></tr><tr><td style="font-weight:bold;vertical-align:top;">max-age</td><td style="vertical-align:top;">:</td><td><div></div></td></tr><tr><td style="font-weight:bold;vertical-align:top;">path</td><td style="vertical-align:top;">:</td><td><div></div></td></tr><tr><td style="font-weight:bold;vertical-align:top;">secure</td><td style="vertical-align:top;">:</td><td><div></div></td></tr><tr><td style="font-weight:bold;vertical-align:top;">version</td><td style="vertical-align:top;">:</td><td><div></div></td></tr></table></div></td></tr><tr><td style="font-weight:bold;vertical-align:top;">session_id_pydoctor</td><td style="vertical-align:top;">:</td><td><div>127.0.0.1-fbc9da0c-a356-4930-9b1a-ea5f66f8c91a<table><tr><td style="font-weight:bold;vertical-align:top;">comment</td><td style="vertical-align:top;">:</td><td><div></div></td></tr><tr><td style="font-weight:bold;vertical-align:top;">domain</td><td style="vertical-align:top;">:</td><td><div></div></td></tr><tr><td style="font-weight:bold;vertical-align:top;">expires</td><td style="vertical-align:top;">:</td><td><div></div></td></tr><tr><td style="font-weight:bold;vertical-align:top;">httponly</td><td style="vertical-align:top;">:</td><td><div></div></td></tr><tr><td style="font-weight:bold;vertical-align:top;">max-age</td><td style="vertical-align:top;">:</td><td><div></div></td></tr><tr><td style="font-weight:bold;vertical-align:top;">path</td><td style="vertical-align:top;">:</td><td><div></div></td></tr><tr><td style="font-weight:bold;vertical-align:top;">secure</td><td style="vertical-align:top;">:</td><td><div></div></td></tr><tr><td style="font-weight:bold;vertical-align:top;">version</td><td style="vertical-align:top;">:</td><td><div></div></td></tr></table></div></td></tr><tr><td style="font-weight:bold;vertical-align:top;">session_id_welcome</td><td style="vertical-align:top;">:</td><td><div>127.0.0.1-28d0de20-c662-49ad-a209-1fc7b4ad606a<table><tr><td style="font-weight:bold;vertical-align:top;">comment</td><td style="vertical-align:top;">:</td><td><div></div></td></tr><tr><td style="font-weight:bold;vertical-align:top;">domain</td><td style="vertical-align:top;">:</td><td><div></div></td></tr><tr><td style="font-weight:bold;vertical-align:top;">expires</td><td style="vertical-align:top;">:</td><td><div></div></td></tr><tr><td style="font-weight:bold;vertical-align:top;">httponly</td><td style="vertical-align:top;">:</td><td><div></div></td></tr><tr><td style="font-weight:bold;vertical-align:top;">max-age</td><td style="vertical-align:top;">:</td><td><div></div></td></tr><tr><td style="font-weight:bold;vertical-align:top;">path</td><td style="vertical-align:top;">:</td><td><div></div></td></tr><tr><td style="font-weight:bold;vertical-align:top;">secure</td><td style="vertical-align:top;">:</td><td><div></div></td></tr><tr><td style="font-weight:bold;vertical-align:top;">version</td><td style="vertical-align:top;">:</td><td><div></div></td></tr></table></div></td></tr></table></div></td></tr><tr><td style="font-weight:bold;vertical-align:top;">env</td><td style="vertical-align:top;">:</td><td><div><table><tr><td style="font-weight:bold;vertical-align:top;">HTTP_ACCEPT</td><td style="vertical-align:top;">:</td><td><div>text/html,application/xhtml+xml,application/xml;q=0.9,*/*;q=0.8</div></td></tr><tr><td style="font-weight:bold;vertical-align:top;">HTTP_ACCEPT_ENCODING</td><td style="vertical-align:top;">:</td><td><div>gzip, deflate</div></td></tr><tr><td style="font-weight:bold;vertical-align:top;">HTTP_ACCEPT_LANGUAGE</td><td style="vertical-align:top;">:</td><td><div>en-US,en;q=0.5</div></td></tr><tr><td style="font-weight:bold;vertical-align:top;">HTTP_CONNECTION</td><td style="vertical-align:top;">:</td><td><div>keep-alive</div></td></tr><tr><td style="font-weight:bold;vertical-align:top;">HTTP_COOKIE</td><td style="vertical-align:top;">:</td><td><div>session_id_welcome=127.0.0.1-28d0de20-c662-49ad-a209-1fc7b4ad606a; session_id_admin=127.0.0.1-2a4b7f5e-d835-4d83-86c6-914407c2d4ee; session_id_pydoctor=127.0.0.1-fbc9da0c-a356-4930-9b1a-ea5f66f8c91a</div></td></tr><tr><td style="font-weight:bold;vertical-align:top;">HTTP_HOST</td><td style="vertical-align:top;">:</td><td><div>127.0.0.1:8000</div></td></tr><tr><td style="font-weight:bold;vertical-align:top;">HTTP_REFERER</td><td style="vertical-align:top;">:</td><td><div>http://127.0.0.1:8000/PyDoctor/appadmin/index</div></td></tr><tr><td style="font-weight:bold;vertical-align:top;">HTTP_USER_AGENT</td><td style="vertical-align:top;">:</td><td><div>Mozilla/5.0 (X11; Ubuntu; Linux x86_64; rv:44.0) Gecko/20100101 Firefox/44.0</div></td></tr><tr><td style="font-weight:bold;vertical-align:top;">PATH_INFO</td><td style="vertical-align:top;">:</td><td><div>/PyDoctor/appadmin/select/db</div></td></tr><tr><td style="font-weight:bold;vertical-align:top;">QUERY_STRING</td><td style="vertical-align:top;">:</td><td><div>query=db.persona.id%3E0</div></td></tr><tr><td style="font-weight:bold;vertical-align:top;">REMOTE_ADDR</td><td style="vertical-align:top;">:</td><td><div>127.0.0.1</div></td></tr><tr><td style="font-weight:bold;vertical-align:top;">REMOTE_PORT</td><td style="vertical-align:top;">:</td><td><div>53812</div></td></tr><tr><td style="font-weight:bold;vertical-align:top;">REQUEST_METHOD</td><td style="vertical-align:top;">:</td><td><div>GET</div></td></tr><tr><td style="font-weight:bold;vertical-align:top;">SCRIPT_NAME</td><td style="vertical-align:top;">:</td><td><div></div></td></tr><tr><td style="font-weight:bold;vertical-align:top;">SERVER_NAME</td><td style="vertical-align:top;">:</td><td><div>marian-GA-MA770T-UD3</div></td></tr><tr><td style="font-weight:bold;vertical-align:top;">SERVER_PORT</td><td style="vertical-align:top;">:</td><td><div>8000</div></td></tr><tr><td style="font-weight:bold;vertical-align:top;">SERVER_PROTOCOL</td><td style="vertical-align:top;">:</td><td><div>HTTP/1.1</div></td></tr><tr><td style="font-weight:bold;vertical-align:top;">SERVER_SOFTWARE</td><td style="vertical-align:top;">:</td><td><div>Rocket 1.2.6</div></td></tr><tr><td style="font-weight:bold;vertical-align:top;">app_folders</td><td style="vertical-align:top;">:</td><td><div>set([&#x27;/home/marian/web2py/applications/welcome/&#x27;, &#x27;/home/marian/web2py/applications/PyDoctor/&#x27;, &#x27;/home/marian/web2py/applications/admin/&#x27;])</div></td></tr><tr><td style="font-weight:bold;vertical-align:top;">applications_parent</td><td style="vertical-align:top;">:</td><td><div>/home/marian/web2py</div></td></tr><tr><td style="font-weight:bold;vertical-align:top;">cmd_args</td><td style="vertical-align:top;">:</td><td><div><table></table></div></td></tr><tr><td style="font-weight:bold;vertical-align:top;">cmd_options</td><td style="vertical-align:top;">:</td><td><div>&lt;Values at 0x7fa00fb1ad40: {&#x27;verbose&#x27;: False, &#x27;ip&#x27;: &#x27;127.0.0.1&#x27;, &#x27;debuglevel&#x27;: 30, &#x27;with_scheduler&#x27;: False, &#x27;ips&#x27;: [&#x27;127.0.1.1&#x27;], &#x27;shutdown_timeout&#x27;: 5, &#x27;taskbar&#x27;: False, &#x27;with_coverage&#x27;: False, &#x27;scheduler_groups&#x27;: None, &#x27;port&#x27;: 8000, &#x27;maxthreads&#x27;: None, &#x27;softcron&#x27;: False, &#x27;server_name&#x27;: &#x27;marian-GA-MA770T-UD3&#x27;, &#x27;bpython&#x27;: False, &#x27;nogui&#x27;: False, &#x27;pid_filename&#x27;: &#x27;httpserver.pid&#x27;, &#x27;print_errors&#x27;: False, &#x27;extcron&#x27;: False, &#x27;runcron&#x27;: False, &#x27;run_system_tests&#x27;: False, &#x27;test&#x27;: None, &#x27;folder&#x27;: &#x27;/home/marian/web2py&#x27;, &#x27;config&#x27;: &#x27;&#x27;, &#x27;minthreads&#x27;: None, &#x27;shell&#x27;: None, &#x27;run&#x27;: &#x27;&#x27;, &#x27;log_filename&#x27;: &#x27;httpserver.log&#x27;, &#x27;profiler_dir&#x27;: None, &#x27;args&#x27;: [&#x27;&#x27;], &#x27;socket_timeout&#x27;: 5, &#x27;ssl_ca_certificate&#x27;: None, &#x27;scheduler&#x27;: None, &#x27;interfaces&#x27;: None, &#x27;ssl_private_key&#x27;: &#x27;&#x27;, &#x27;gae&#x27;: None, &#x27;password&#x27;: &#x27;&lt;ask&gt;&#x27;, &#x27;request_queue_size&#x27;: 5, &#x27;ssl_certificate&#x27;: &#x27;&#x27;, &#x27;cronjob&#x27;: False, &#x27;numthreads&#x27;: None, &#x27;quiet&#x27;: False, &#x27;import_models&#x27;: False, &#x27;timeout&#x27;: 10, &#x27;plain&#x27;: False, &#x27;nobanner&#x27;: False}&gt;</div></td></tr><tr><td style="font-weight:bold;vertical-align:top;">db_sessions</td><td style="vertical-align:top;">:</td><td><div>set([])</div></td></tr><tr><td style="font-weight:bold;vertical-align:top;">debugging</td><td style="vertical-align:top;">:</td><td><div>True</div></td></tr><tr><td style="font-weight:bold;vertical-align:top;">gluon_parent</td><td style="vertical-align:top;">:</td><td><div>/home/marian/web2py</div></td></tr><tr><td style="font-weight:bold;vertical-align:top;">http_accept</td><td style="vertical-align:top;">:</td><td><div>text/html,application/xhtml+xml,application/xml;q=0.9,*/*;q=0.8</div></td></tr><tr><td style="font-weight:bold;vertical-align:top;">http_accept_encoding</td><td style="vertical-align:top;">:</td><td><div>gzip, deflate</div></td></tr><tr><td style="font-weight:bold;vertical-align:top;">http_accept_language</td><td style="vertical-align:top;">:</td><td><div>en-US,en;q=0.5</div></td></tr><tr><td style="font-weight:bold;vertical-align:top;">http_connection</td><td style="vertical-align:top;">:</td><td><div>keep-alive</div></td></tr><tr><td style="font-weight:bold;vertical-align:top;">http_cookie</td><td style="vertical-align:top;">:</td><td><div>session_id_welcome=127.0.0.1-28d0de20-c662-49ad-a209-1fc7b4ad606a; session_id_admin=127.0.0.1-2a4b7f5e-d835-4d83-86c6-914407c2d4ee; session_id_pydoctor=127.0.0.1-fbc9da0c-a356-4930-9b1a-ea5f66f8c91a</div></td></tr><tr><td style="font-weight:bold;vertical-align:top;">http_host</td><td style="vertical-align:top;">:</td><td><div>127.0.0.1:8000</div></td></tr><tr><td style="font-weight:bold;vertical-align:top;">http_referer</td><td style="vertical-align:top;">:</td><td><div>http://127.0.0.1:8000/PyDoctor/appadmin/index</div></td></tr><tr><td style="font-weight:bold;vertical-align:top;">http_user_agent</td><td style="vertical-align:top;">:</td><td><div>Mozilla/5.0 (X11; Ubuntu; Linux x86_64; rv:44.0) Gecko/20100101 Firefox/44.0</div></td></tr><tr><td style="font-weight:bold;vertical-align:top;">is_jython</td><td style="vertical-align:top;">:</td><td><div>False</div></td></tr><tr><td style="font-weight:bold;vertical-align:top;">is_pypy</td><td style="vertical-align:top;">:</td><td><div>False</div></td></tr><tr><td style="font-weight:bold;vertical-align:top;">is_source</td><td style="vertical-align:top;">:</td><td><div>True</div></td></tr><tr><td style="font-weight:bold;vertical-align:top;">local_hosts</td><td style="vertical-align:top;">:</td><td><div><table><tr><td><div>::1</div></td></tr><tr><td><div>127.0.1.1</div></td></tr><tr><td><div>::ffff:127.0.0.1</div></td></tr><tr><td><div>127.0.0.1</div></td></tr><tr><td><div>marian-GA-MA770T-UD3</div></td></tr></table></div></td></tr><tr><td style="font-weight:bold;vertical-align:top;">path_info</td><td style="vertical-align:top;">:</td><td><div>/PyDoctor/appadmin/select/db</div></td></tr><tr><td style="font-weight:bold;vertical-align:top;">query_string</td><td style="vertical-align:top;">:</td><td><div>query=db.persona.id%3E0</div></td></tr><tr><td style="font-weight:bold;vertical-align:top;">remote_addr</td><td style="vertical-align:top;">:</td><td><div>127.0.0.1</div></td></tr><tr><td style="font-weight:bold;vertical-align:top;">remote_port</td><td style="vertical-align:top;">:</td><td><div>53812</div></td></tr><tr><td style="font-weight:bold;vertical-align:top;">request_method</td><td style="vertical-align:top;">:</td><td><div>GET</div></td></tr><tr><td style="font-weight:bold;vertical-align:top;">request_uri</td><td style="vertical-align:top;">:</td><td><div>/PyDoctor/appadmin/select/db?query=db.persona.id%3E0</div></td></tr><tr><td style="font-weight:bold;vertical-align:top;">script_name</td><td style="vertical-align:top;">:</td><td><div></div></td></tr><tr><td style="font-weight:bold;vertical-align:top;">server_name</td><td style="vertical-align:top;">:</td><td><div>marian-GA-MA770T-UD3</div></td></tr><tr><td style="font-weight:bold;vertical-align:top;">server_port</td><td style="vertical-align:top;">:</td><td><div>8000</div></td></tr><tr><td style="font-weight:bold;vertical-align:top;">server_protocol</td><td style="vertical-align:top;">:</td><td><div>HTTP/1.1</div></td></tr><tr><td style="font-weight:bold;vertical-align:top;">server_software</td><td style="vertical-align:top;">:</td><td><div>Rocket 1.2.6</div></td></tr><tr><td style="font-weight:bold;vertical-align:top;">web2py_path</td><td style="vertical-align:top;">:</td><td><div>/home/marian/web2py</div></td></tr><tr><td style="font-weight:bold;vertical-align:top;">web2py_version</td><td style="vertical-align:top;">:</td><td><div>2.13.3-stable+timestamp.2015.12.24.08.08.22</div></td></tr><tr><td style="font-weight:bold;vertical-align:top;">wsgi.errors</td><td style="vertical-align:top;">:</td><td><div>&lt;open file &#x27;&lt;stderr&gt;&#x27;, mode &#x27;w&#x27; at 0x7fa016b571e0&gt;</div></td></tr><tr><td style="font-weight:bold;vertical-align:top;">wsgi.file_wrapper</td><td style="vertical-align:top;">:</td><td><div>&lt;class wsgiref.util.FileWrapper at 0x7fa00fb48390&gt;</div></td></tr><tr><td style="font-weight:bold;vertical-align:top;">wsgi.input</td><td style="vertical-align:top;">:</td><td><div>&lt;socket._fileobject object at 0x7f9fd4bc0650&gt;</div></td></tr><tr><td style="font-weight:bold;vertical-align:top;">wsgi.multiprocess</td><td style="vertical-align:top;">:</td><td><div>False</div></td></tr><tr><td style="font-weight:bold;vertical-align:top;">wsgi.multithread</td><td style="vertical-align:top;">:</td><td><div>True</div></td></tr><tr><td style="font-weight:bold;vertical-align:top;">wsgi.run_once</td><td style="vertical-align:top;">:</td><td><div>False</div></td></tr><tr><td style="font-weight:bold;vertical-align:top;">wsgi.url_scheme</td><td style="vertical-align:top;">:</td><td><div>http</div></td></tr><tr><td style="font-weight:bold;vertical-align:top;">wsgi.version</td><td style="vertical-align:top;">:</td><td><div><table><tr><td><div>1</div></td></tr><tr><td><div>0</div></td></tr></table></div></td></tr><tr><td style="font-weight:bold;vertical-align:top;">wsgi_errors</td><td style="vertical-align:top;">:</td><td><div>&lt;open file &#x27;&lt;stderr&gt;&#x27;, mode &#x27;w&#x27; at 0x7fa016b571e0&gt;</div></td></tr><tr><td style="font-weight:bold;vertical-align:top;">wsgi_file_wrapper</td><td style="vertical-align:top;">:</td><td><div>&lt;class wsgiref.util.FileWrapper at 0x7fa00fb48390&gt;</div></td></tr><tr><td style="font-weight:bold;vertical-align:top;">wsgi_input</td><td style="vertical-align:top;">:</td><td><div>&lt;socket._fileobject object at 0x7f9fd4bc0650&gt;</div></td></tr><tr><td style="font-weight:bold;vertical-align:top;">wsgi_multiprocess</td><td style="vertical-align:top;">:</td><td><div>False</div></td></tr><tr><td style="font-weight:bold;vertical-align:top;">wsgi_multithread</td><td style="vertical-align:top;">:</td><td><div>True</div></td></tr><tr><td style="font-weight:bold;vertical-align:top;">wsgi_run_once</td><td style="vertical-align:top;">:</td><td><div>False</div></td></tr><tr><td style="font-weight:bold;vertical-align:top;">wsgi_url_scheme</td><td style="vertical-align:top;">:</td><td><div>http</div></td></tr><tr><td style="font-weight:bold;vertical-align:top;">wsgi_version</td><td style="vertical-align:top;">:</td><td><div><table><tr><td><div>1</div></td></tr><tr><td><div>0</div></td></tr></table></div></td></tr></table></div></td></tr><tr><td style="font-weight:bold;vertical-align:top;">extension</td><td style="vertical-align:top;">:</td><td><div>html</div></td></tr><tr><td style="font-weight:bold;vertical-align:top;">folder</td><td style="vertical-align:top;">:</td><td><div>/home/marian/web2py/applications/PyDoctor/</div></td></tr><tr><td style="font-weight:bold;vertical-align:top;">function</td><td style="vertical-align:top;">:</td><td><div>select</div></td></tr><tr><td style="font-weight:bold;vertical-align:top;">global_settings</td><td style="vertical-align:top;">:</td><td><div><table><tr><td style="font-weight:bold;vertical-align:top;">app_folders</td><td style="vertical-align:top;">:</td><td><div>set([&#x27;/home/marian/web2py/applications/welcome/&#x27;, &#x27;/home/marian/web2py/applications/PyDoctor/&#x27;, &#x27;/home/marian/web2py/applications/admin/&#x27;])</div></td></tr><tr><td style="font-weight:bold;vertical-align:top;">applications_parent</td><td style="vertical-align:top;">:</td><td><div>/home/marian/web2py</div></td></tr><tr><td style="font-weight:bold;vertical-align:top;">cmd_args</td><td style="vertical-align:top;">:</td><td><div><table></table></div></td></tr><tr><td style="font-weight:bold;vertical-align:top;">cmd_options</td><td style="vertical-align:top;">:</td><td><div>&lt;Values at 0x7fa00fb1ad40: {&#x27;verbose&#x27;: False, &#x27;ip&#x27;: &#x27;127.0.0.1&#x27;, &#x27;debuglevel&#x27;: 30, &#x27;with_scheduler&#x27;: False, &#x27;ips&#x27;: [&#x27;127.0.1.1&#x27;], &#x27;shutdown_timeout&#x27;: 5, &#x27;taskbar&#x27;: False, &#x27;with_coverage&#x27;: False, &#x27;scheduler_groups&#x27;: None, &#x27;port&#x27;: 8000, &#x27;maxthreads&#x27;: None, &#x27;softcron&#x27;: False, &#x27;server_name&#x27;: &#x27;marian-GA-MA770T-UD3&#x27;, &#x27;bpython&#x27;: False, &#x27;nogui&#x27;: False, &#x27;pid_filename&#x27;: &#x27;httpserver.pid&#x27;, &#x27;print_errors&#x27;: False, &#x27;extcron&#x27;: False, &#x27;runcron&#x27;: False, &#x27;run_system_tests&#x27;: False, &#x27;test&#x27;: None, &#x27;folder&#x27;: &#x27;/home/marian/web2py&#x27;, &#x27;config&#x27;: &#x27;&#x27;, &#x27;minthreads&#x27;: None, &#x27;shell&#x27;: None, &#x27;run&#x27;: &#x27;&#x27;, &#x27;log_filename&#x27;: &#x27;httpserver.log&#x27;, &#x27;profiler_dir&#x27;: None, &#x27;args&#x27;: [&#x27;&#x27;], &#x27;socket_timeout&#x27;: 5, &#x27;ssl_ca_certificate&#x27;: None, &#x27;scheduler&#x27;: None, &#x27;interfaces&#x27;: None, &#x27;ssl_private_key&#x27;: &#x27;&#x27;, &#x27;gae&#x27;: None, &#x27;password&#x27;: &#x27;&lt;ask&gt;&#x27;, &#x27;request_queue_size&#x27;: 5, &#x27;ssl_certificate&#x27;: &#x27;&#x27;, &#x27;cronjob&#x27;: False, &#x27;numthreads&#x27;: None, &#x27;quiet&#x27;: False, &#x27;import_models&#x27;: False, &#x27;timeout&#x27;: 10, &#x27;plain&#x27;: False, &#x27;nobanner&#x27;: False}&gt;</div></td></tr><tr><td style="font-weight:bold;vertical-align:top;">db_sessions</td><td style="vertical-align:top;">:</td><td><div>set([])</div></td></tr><tr><td style="font-weight:bold;vertical-align:top;">debugging</td><td style="vertical-align:top;">:</td><td><div>True</div></td></tr><tr><td style="font-weight:bold;vertical-align:top;">gluon_parent</td><td style="vertical-align:top;">:</td><td><div>/home/marian/web2py</div></td></tr><tr><td style="font-weight:bold;vertical-align:top;">is_jython</td><td style="vertical-align:top;">:</td><td><div>False</div></td></tr><tr><td style="font-weight:bold;vertical-align:top;">is_pypy</td><td style="vertical-align:top;">:</td><td><div>False</div></td></tr><tr><td style="font-weight:bold;vertical-align:top;">is_source</td><td style="vertical-align:top;">:</td><td><div>True</div></td></tr><tr><td style="font-weight:bold;vertical-align:top;">local_hosts</td><td style="vertical-align:top;">:</td><td><div><table><tr><td><div>::1</div></td></tr><tr><td><div>127.0.1.1</div></td></tr><tr><td><div>::ffff:127.0.0.1</div></td></tr><tr><td><div>127.0.0.1</div></td></tr><tr><td><div>marian-GA-MA770T-UD3</div></td></tr></table></div></td></tr><tr><td style="font-weight:bold;vertical-align:top;">web2py_version</td><td style="vertical-align:top;">:</td><td><div>2.13.3-stable+timestamp.2015.12.24.08.08.22</div></td></tr></table></div></td></tr><tr><td style="font-weight:bold;vertical-align:top;">is_https</td><td style="vertical-align:top;">:</td><td><div>False</div></td></tr><tr><td style="font-weight:bold;vertical-align:top;">is_local</td><td style="vertical-align:top;">:</td><td><div>True</div></td></tr><tr><td style="font-weight:bold;vertical-align:top;">is_restful</td><td style="vertical-align:top;">:</td><td><div>False</div></td></tr><tr><td style="font-weight:bold;vertical-align:top;">is_scheduler</td><td style="vertical-align:top;">:</td><td><div>False</div></td></tr><tr><td style="font-weight:bold;vertical-align:top;">is_shell</td><td style="vertical-align:top;">:</td><td><div>False</div></td></tr><tr><td style="font-weight:bold;vertical-align:top;">now</td><td style="vertical-align:top;">:</td><td><div>datetime.datetime(2016, 2, 3, 23, 56, 43, 887094)</div></td></tr><tr><td style="font-weight:bold;vertical-align:top;">raw_args</td><td style="vertical-align:top;">:</td><td><div>db</div></td></tr><tr><td style="font-weight:bold;vertical-align:top;">raw_extension</td><td style="vertical-align:top;">:</td><td><div>None</div></td></tr><tr><td style="font-weight:bold;vertical-align:top;">url</td><td style="vertical-align:top;">:</td><td><div>/PyDoctor/appadmin/select/db</div></td></tr><tr><td style="font-weight:bold;vertical-align:top;">utcnow</td><td style="vertical-align:top;">:</td><td><div>datetime.datetime(2016, 2, 4, 2, 56, 43, 887123)</div></td></tr><tr><td style="font-weight:bold;vertical-align:top;">wsgi</td><td style="vertical-align:top;">:</td><td><div>&lt;gluon.main.LazyWSGI object at 0x7f9fd4c664d0&gt;</div></td></tr></table></div>'
tRp58
sS'frames'
p59
(lp60
(dp61
S'file'
p62
S'/home/marian/web2py/gluon/restricted.py'
p63
sS'dump'
p64
(dp65
S'environment'
p66
S"{'A': <class 'gluon.html.A'>, 'ANY_OF': <class 'gluon.validators.ANY_OF'>, 'ASSIGNJS': <function ASSIGNJS>, 'AppConfig': <function AppConfig>, 'Auth': <class 'gluon.tools.Auth'>, 'B': <class 'gluon.html.B'>, 'BEAUTIFY': <class 'gluon.html.BEAUTIFY'>, 'BODY': <class 'gluon.html.BODY'>, 'BR': <class 'gluon.html.BR'>, 'BUTTON': <class 'gluon.html.BUTTON'>, ...}"
p67
sS'ccode'
p68
S'<code object <module> at 0x7f9fd411c2b0, file "/...plications/PyDoctor/views/appadmin.html", line 1>'
p69
ssS'lnum'
p70
I227
sS'lines'
p71
(dp72
I224
S'            ccode = code'
p73
sI225
S'        else:'
p74
sI226
S'            ccode = compile2(code, layer)'
p75
sI227
S'        exec ccode in environment'
p76
sI228
S'    except HTTP:'
p77
sI229
S'        raise'
p78
sI230
S'    except RestrictedError:'
p79
sI231
S'        # do not encapsulate (obfuscate) the original RestrictedError'
p80
sI222
S'    try:'
p81
sI223
S'        if isinstance(code, types.CodeType):'
p82
ssS'call'
p83
S'(code=r"response.write(\'<!DOCTYPE html>\\n<!--[if (gt IE ...  </script>\\n  </body>\\n</html>\\n\', escape=False)", environment={\'A\': <class \'gluon.html.A\'>, \'ANY_OF\': <class \'gluon.validators.ANY_OF\'>, \'ASSIGNJS\': <function ASSIGNJS>, \'AppConfig\': <function AppConfig>, \'Auth\': <class \'gluon.tools.Auth\'>, \'B\': <class \'gluon.html.B\'>, \'BEAUTIFY\': <class \'gluon.html.BEAUTIFY\'>, \'BODY\': <class \'gluon.html.BODY\'>, \'BR\': <class \'gluon.html.BR\'>, \'BUTTON\': <class \'gluon.html.BUTTON\'>, ...}, layer=\'/home/marian/web2py/applications/PyDoctor/views/appadmin.html\')'
p84
sS'func'
p85
S'restricted'
p86
sa(dp87
g62
S'/home/marian/web2py/applications/PyDoctor/views/appadmin.html'
p88
sg64
(dp89
S'ram'
p90
S'undefined'
p91
ssg70
I175
sg71
(dp92
I166
S'        response.write(A(T(\'next %s rows\') % step,_href=URL(\'select\',args=request.args[0],vars=dict(start=start+step)),_class="btn btn-default"))'
p93
sI167
S'        pass'
p94
sI168
S"    response.write('\\n    ', escape=False)"
p95
sI169
S'    if rows:'
p96
sI170
S'        response.write(\'\\n       <div style="overflow:auto; width:80%;">\\n       \', escape=False)'
p97
sI171
S'        linkto = lambda f, t, r: URL(\'update\', args=[request.args[0], r, f]) if f else "#"'
p98
sI172
S"        response.write('\\n       ', escape=False)"
p99
sI173
S"        upload=URL('download',args=request.args[0])"
p100
sI174
S"        response.write('\\n       ', escape=False)"
p101
sI175
S"        response.write(SQLTABLE(rows,linkto,upload,orderby=True,_class='sortable'))"
p102
sI176
S"        response.write('\\n       </div>\\n    ', escape=False)"
p103
sI177
S'        pass'
p104
sI178
S"    response.write('\\n    <br/><br/><h3>', escape=False)"
p105
sI179
S'    response.write(T("Import/Export"))'
p106
sI180
S'    response.write(\'</h3><br/>\\n    <a href="\', escape=False)'
p107
sI181
S"    response.write(URL('csv',args=request.args[0],vars=dict(query=query)))"
p108
sI182
S'    response.write(\'" class="btn btn-default">\', escape=False)'
p109
sI183
S'    response.write(T("export as csv file"))'
p110
sI184
S"    response.write('</a>\\n  ', escape=False)"
p111
sI185
S"    response.write(formcsv or '')"
p112
ssg83
S'()'
p113
sg85
S'<module>'
p114
sa(dp115
g62
S'/home/marian/web2py/gluon/sqlhtml.py'
p116
sg64
(dp117
S'record'
p118
S"<Row {'domiciliolegal': None, 'modified_by': 1L,...ne, 'domicilio': 'Irigoyen 45', 'celular': None}>"
p119
sS'global represent'
p120
S'<function represent>'
p121
sS'r'
S'None'
p122
sS'field'
p123
S'<pydal.objects.Field object>'
p124
ssg70
I3284
sg71
(dp125
I3279
S'                                    for k in field._table._primarykey]))'
p126
sI3280
S"                    r = A(r, _href='%s/%s?%s' % (linkto, tablename, key))"
p127
sI3281
S"                elif isinstance(field.type, str) and field.type.startswith('list:'):"
p128
sI3282
S'                    r = represent(field, r or [], record)'
p129
sI3283
S'                elif field.represent:'
p130
sI3284
S'                    r = represent(field, r, record)'
p131
sI3285
S"                elif field.type == 'blob' and r:"
p132
sI3286
S"                    r = 'DATA'"
p133
sI3287
S"                elif field.type == 'upload':"
p134
sI3288
S'                    if upload and r:'
p135
ssg83
S"(self=<gluon.sqlhtml.SQLTABLE object>, sqlrows=<Rows (100)>, linkto=<function <lambda>>, upload='/PyDoctor/appadmin/download/db', orderby=True, headers={}, truncate=16, columns=['persona.id', 'persona.sexo', 'persona.apellido', 'persona.nombre', 'persona.cuitcuil', 'persona.domicilio', 'persona.email', 'persona.observaciones', 'persona.telefono', 'persona.celular', 'persona.fotografia', 'persona.matricula', 'persona.domiciliolegal', 'persona.is_active', 'persona.created_on', 'persona.created_by', 'persona.modified_on', 'persona.modified_by'], th_link='', extracolumns=None, selectid=None, renderstyle=False, cid=None, colgroup=False, **attributes={'_class': 'sortable'})"
p136
sg85
g50
sa(dp137
g62
S'/home/marian/web2py/gluon/sqlhtml.py'
p138
sg64
(dp139
S'record'
p140
S"<Row {'domiciliolegal': None, 'modified_by': 1L,...ne, 'domicilio': 'Irigoyen 45', 'celular': None}>"
p141
sS'value'
p142
S'None'
p143
sS'f'
S'<function advanced_repr>'
p144
ssg70
I70
sg71
(dp145
I65
S'    else:'
p146
sI66
S'        n = 1'
p147
sI67
S'    if n == 1:'
p148
sI68
S'        return f(value)'
p149
sI69
S'    elif n == 2:'
p150
sI70
S'        return f(value, record)'
p151
sI71
S'    else:'
p152
sI72
S'        raise RuntimeError("field representation must take 1 or 2 args")'
p153
sI73
S''
sI74
S'class CacheRepresenter(object):'
p154
ssg83
S"(field=<pydal.objects.Field object>, value=None, record=<Row {'domiciliolegal': None, 'modified_by': 1L,...ne, 'domicilio': 'Irigoyen 45', 'celular': None}>)"
p155
sg85
S'represent'
p156
sa(dp157
g62
S'/home/marian/web2py/applications/PyDoctor/models/db_pydoctor.py'
p158
sg64
(dp159
S'mdtext'
p160
g91
sS'html2text.html2text'
p161
S'<function html2text>'
p162
sS'value'
p163
S'None'
p164
sS'global html2text'
p165
S"<module 'applications.PyDoctor.modules.html2text...om 'applications/PyDoctor/modules/html2text.pyc'>"
p166
ssg70
I6
sg71
(dp167
I2
S'import html2text'
p168
sI3
S'from gluon.contrib.markdown.markdown2 import markdown'
p169
sI4
S''
sI5
S'def advanced_repr(value, row):'
p170
sI6
S'    mdtext=html2text.html2text(value)'
p171
sI7
S'    if len(mdtext)>=500:'
p172
sI8
S"        mdtext=mdtext[:500]+' ...'"
p173
sI9
S"    mdtext=mdtext.replace('\\n',' ')"
p174
sI10
S'    return XML(markdown(mdtext))'
p175
sI11
S''
ssg83
S"(value=None, row=<Row {'domiciliolegal': None, 'modified_by': 1L,...ne, 'domicilio': 'Irigoyen 45', 'celular': None}>)"
p176
sg85
S'advanced_repr'
p177
sa(dp178
g62
S'/home/marian/web2py/applications/PyDoctor/modules/html2text.py'
p179
sg64
(dp180
S'builtinNone'
p181
S'None'
p182
sS'html'
p183
S'None'
p184
sS'global optwrap'
p185
S'<function optwrap>'
p186
sS'global html2text_file'
p187
S'<function html2text_file>'
p188
sS'baseurl'
p189
S"''"
p190
ssg70
I700
sg71
(dp191
I704
S'options.google_doc = False'
p192
sI695
S'    h.feed(html)'
p193
sI696
S'    h.feed("")'
p194
sI697
S'    return h.close()'
p195
sI698
S''
sI699
S"def html2text(html, baseurl=''):"
p196
sI700
S'    return optwrap(html2text_file(html, None, baseurl))'
p197
sI701
S''
sI702
S'class Storage: pass'
p198
sI703
S'options = Storage()'
p199
ssg83
S"(html=None, baseurl='')"
p200
sg85
S'html2text'
p201
sa(dp202
g62
S'/home/marian/web2py/applications/PyDoctor/modules/html2text.py'
p203
sg64
(dp204
S'h.feed'
p205
S'<bound method _html2text.feed of <applications.PyDoctor.modules.html2text._html2text instance>>'
p206
sS'h'
S'<applications.PyDoctor.modules.html2text._html2text instance>'
p207
sS'html'
p208
S'None'
p209
ssg70
I695
sg71
(dp210
I690
S'    except AttributeError:'
p211
sI691
S'        sys.stdout.write(text)'
p212
sI692
S''
sI693
S"def html2text_file(html, out=wrapwrite, baseurl=''):"
p213
sI694
S'    h = _html2text(out, baseurl)'
p214
sI695
S'    h.feed(html)'
p215
sI696
S'    h.feed("")'
p216
sI697
S'    return h.close()'
p217
sI698
S''
sI699
S"def html2text(html, baseurl=''):"
p218
ssg83
S"(html=None, out=None, baseurl='')"
p219
sg85
S'html2text_file'
p220
sa(dp221
g62
S'/home/marian/web2py/applications/PyDoctor/modules/html2text.py'
p222
sg64
(dp223
S'data'
p224
S'None'
p225
sS'data.replace'
p226
g91
ssg70
I284
sg71
(dp227
I288
S'        self.outtextlist.append(s)'
p228
sI279
S'        if options.google_doc:'
p229
sI280
S"            del unifiable_n[name2cp('nbsp')]"
p230
sI281
S"            unifiable['nbsp'] = '&nbsp_place_holder;'"
p231
sI282
S''
sI283
S'    def feed(self, data):'
p232
sI284
S'        data = data.replace("</\' + \'script>", "</ignore>")'
p233
sI285
S'        HTMLParser.HTMLParser.feed(self, data)'
p234
sI286
S''
sI287
S'    def outtextf(self, s):'
p235
ssg83
S'(self=<applications.PyDoctor.modules.html2text._html2text instance>, data=None)'
p236
sg85
S'feed'
p237
sasS'pyver'
p238
S'Python 2.7.10: /usr/bin/python (prefix: /usr)'
p239
sS'session'
p240
g57
(S's\x02\n\x00\x00<div><table><tr><td style="font-weight:bold;vertical-align:top;">auth</td><td style="vertical-align:top;">:</td><td><div><table><tr><td style="font-weight:bold;vertical-align:top;">expiration</td><td style="vertical-align:top;">:</td><td><div>3600</div></td></tr><tr><td style="font-weight:bold;vertical-align:top;">hmac_key</td><td style="vertical-align:top;">:</td><td><div>41e4c1eb-c37b-4084-b342-7b0d1a86f3d2</div></td></tr><tr><td style="font-weight:bold;vertical-align:top;">last_visit</td><td style="vertical-align:top;">:</td><td><div>datetime.datetime(2016, 2, 3, 23, 54, 30, 384437)</div></td></tr><tr><td style="font-weight:bold;vertical-align:top;">remember_me</td><td style="vertical-align:top;">:</td><td><div>False</div></td></tr><tr><td style="font-weight:bold;vertical-align:top;">user</td><td style="vertical-align:top;">:</td><td><div><table><tr><td style="font-weight:bold;vertical-align:top;">email</td><td style="vertical-align:top;">:</td><td><div>user2@root.com</div></td></tr><tr><td style="font-weight:bold;vertical-align:top;">first_name</td><td style="vertical-align:top;">:</td><td><div>user2</div></td></tr><tr><td style="font-weight:bold;vertical-align:top;">id</td><td style="vertical-align:top;">:</td><td><div>2L</div></td></tr><tr><td style="font-weight:bold;vertical-align:top;">last_name</td><td style="vertical-align:top;">:</td><td><div>user2</div></td></tr><tr><td style="font-weight:bold;vertical-align:top;">registration_id</td><td style="vertical-align:top;">:</td><td><div></div></td></tr><tr><td style="font-weight:bold;vertical-align:top;">registration_key</td><td style="vertical-align:top;">:</td><td><div></div></td></tr><tr><td style="font-weight:bold;vertical-align:top;">reset_password_key</td><td style="vertical-align:top;">:</td><td><div></div></td></tr></table></div></td></tr><tr><td style="font-weight:bold;vertical-align:top;">user_groups</td><td style="vertical-align:top;">:</td><td><div><table><tr><td style="font-weight:bold;vertical-align:top;">2</td><td style="vertical-align:top;">:</td><td><div>user_2</div></td></tr></table></div></td></tr></table></div></td></tr><tr><td style="font-weight:bold;vertical-align:top;">flash</td><td style="vertical-align:top;">:</td><td><div>None</div></td></tr><tr><td style="font-weight:bold;vertical-align:top;">last_orderby</td><td style="vertical-align:top;">:</td><td><div>None</div></td></tr><tr><td style="font-weight:bold;vertical-align:top;">last_query</td><td style="vertical-align:top;">:</td><td><div>db.persona.id&gt;0</div></td></tr></table></div>'
tRp241
sS'etype'
p242
S"<type 'exceptions.AttributeError'>"
p243
sS'date'
p244
S'Wed Feb  3 23:56:44 2016'
p245
sS'response'
p246
g57
(S'sy \x00\x00<div><table><tr><td style="font-weight:bold;vertical-align:top;">body</td><td style="vertical-align:top;">:</td><td><div>&lt;cStringIO.StringO object at 0x7f9fc694c030&gt;</div></td></tr><tr><td style="font-weight:bold;vertical-align:top;">cookies</td><td style="vertical-align:top;">:</td><td><div><table><tr><td style="font-weight:bold;vertical-align:top;">session_id_pydoctor</td><td style="vertical-align:top;">:</td><td><div>127.0.0.1-fbc9da0c-a356-4930-9b1a-ea5f66f8c91a<table><tr><td style="font-weight:bold;vertical-align:top;">comment</td><td style="vertical-align:top;">:</td><td><div></div></td></tr><tr><td style="font-weight:bold;vertical-align:top;">domain</td><td style="vertical-align:top;">:</td><td><div></div></td></tr><tr><td style="font-weight:bold;vertical-align:top;">expires</td><td style="vertical-align:top;">:</td><td><div></div></td></tr><tr><td style="font-weight:bold;vertical-align:top;">httponly</td><td style="vertical-align:top;">:</td><td><div></div></td></tr><tr><td style="font-weight:bold;vertical-align:top;">max-age</td><td style="vertical-align:top;">:</td><td><div></div></td></tr><tr><td style="font-weight:bold;vertical-align:top;">path</td><td style="vertical-align:top;">:</td><td><div>/</div></td></tr><tr><td style="font-weight:bold;vertical-align:top;">secure</td><td style="vertical-align:top;">:</td><td><div></div></td></tr><tr><td style="font-weight:bold;vertical-align:top;">version</td><td style="vertical-align:top;">:</td><td><div></div></td></tr></table></div></td></tr></table></div></td></tr><tr><td style="font-weight:bold;vertical-align:top;">delimiters</td><td style="vertical-align:top;">:</td><td><div><table><tr><td><div>{{</div></td></tr><tr><td><div>}}</div></td></tr></table></div></td></tr><tr><td style="font-weight:bold;vertical-align:top;">files</td><td style="vertical-align:top;">:</td><td><div><table><tr><td><div>/PyDoctor/static/js/jquery.js</div></td></tr><tr><td><div>/PyDoctor/static/css/calendar.css</div></td></tr><tr><td><div>/PyDoctor/static/js/calendar.js</div></td></tr><tr><td><div>/PyDoctor/static/js/web2py.js</div></td></tr></table></div></td></tr><tr><td style="font-weight:bold;vertical-align:top;">flash</td><td style="vertical-align:top;">:</td><td><div></div></td></tr><tr><td style="font-weight:bold;vertical-align:top;">form_label_separator</td><td style="vertical-align:top;">:</td><td><div></div></td></tr><tr><td style="font-weight:bold;vertical-align:top;">formstyle</td><td style="vertical-align:top;">:</td><td><div>bootstrap3_inline</div></td></tr><tr><td style="font-weight:bold;vertical-align:top;">generic_patterns</td><td style="vertical-align:top;">:</td><td><div><table><tr><td><div>*</div></td></tr></table></div></td></tr><tr><td style="font-weight:bold;vertical-align:top;">google_analytics_id</td><td style="vertical-align:top;">:</td><td><div>None</div></td></tr><tr><td style="font-weight:bold;vertical-align:top;">headers</td><td style="vertical-align:top;">:</td><td><div><table><tr><td style="font-weight:bold;vertical-align:top;">X-Powered-By</td><td style="vertical-align:top;">:</td><td><div>web2py</div></td></tr></table></div></td></tr><tr><td style="font-weight:bold;vertical-align:top;">logo</td><td style="vertical-align:top;">:</td><td><div><a class="navbar-brand" id="web2py-logo"><b><span>Py</span>Doctor</b>&trade;&nbsp;</a></div></td></tr><tr><td style="font-weight:bold;vertical-align:top;">menu</td><td style="vertical-align:top;">:</td><td><div><table><tr><td><div><table><tr><td><div>dise\xc3\xb1o</div></td></tr><tr><td><div>False</div></td></tr><tr><td><div>/admin/default/design/PyDoctor</div></td></tr></table></div></td></tr><tr><td><div><table><tr><td><div>bdd</div></td></tr><tr><td><div>False</div></td></tr><tr><td><div>/PyDoctor/appadmin/index</div></td></tr></table></div></td></tr><tr><td><div><table><tr><td><div>estado</div></td></tr><tr><td><div>False</div></td></tr><tr><td><div>/PyDoctor/appadmin/state</div></td></tr></table></div></td></tr><tr><td><div><table><tr><td><div>cach\xc3\xa9</div></td></tr><tr><td><div>False</div></td></tr><tr><td><div>/PyDoctor/appadmin/ccache</div></td></tr></table></div></td></tr></table></div></td></tr><tr><td style="font-weight:bold;vertical-align:top;">meta</td><td style="vertical-align:top;">:</td><td><div><table><tr><td style="font-weight:bold;vertical-align:top;">author</td><td style="vertical-align:top;">:</td><td><div>Your Name &lt;you@example.com&gt;</div></td></tr><tr><td style="font-weight:bold;vertical-align:top;">description</td><td style="vertical-align:top;">:</td><td><div>a cool new app</div></td></tr><tr><td style="font-weight:bold;vertical-align:top;">generator</td><td style="vertical-align:top;">:</td><td><div>Web2py Web Framework</div></td></tr><tr><td style="font-weight:bold;vertical-align:top;">keywords</td><td style="vertical-align:top;">:</td><td><div>web2py, python, framework</div></td></tr></table></div></td></tr><tr><td style="font-weight:bold;vertical-align:top;">models_to_run</td><td style="vertical-align:top;">:</td><td><div><table><tr><td><div>^\\w+\\.py$</div></td></tr><tr><td><div>^appadmin/\\w+\\.py$</div></td></tr><tr><td><div>^appadmin/select/\\w+\\.py$</div></td></tr></table></div></td></tr><tr><td style="font-weight:bold;vertical-align:top;">postprocessing</td><td style="vertical-align:top;">:</td><td><div><table></table></div></td></tr><tr><td style="font-weight:bold;vertical-align:top;">session_client</td><td style="vertical-align:top;">:</td><td><div>127.0.0.1</div></td></tr><tr><td style="font-weight:bold;vertical-align:top;">session_cookie_compression_level</td><td style="vertical-align:top;">:</td><td><div>None</div></td></tr><tr><td style="font-weight:bold;vertical-align:top;">session_cookie_expires</td><td style="vertical-align:top;">:</td><td><div>None</div></td></tr><tr><td style="font-weight:bold;vertical-align:top;">session_cookie_key</td><td style="vertical-align:top;">:</td><td><div>None</div></td></tr><tr><td style="font-weight:bold;vertical-align:top;">session_data_name</td><td style="vertical-align:top;">:</td><td><div>session_data_pydoctor</div></td></tr><tr><td style="font-weight:bold;vertical-align:top;">session_file</td><td style="vertical-align:top;">:</td><td><div>&lt;open file &#x27;/home/marian/web2py/applications/PyDoctor/sessions/0ff/0e6/127.0.0.1-fbc9da0c-a356-4930-9b1a-ea5f66f8c91a&#x27;, mode &#x27;rb+&#x27; at 0x7fa0047dddb0&gt;</div></td></tr><tr><td style="font-weight:bold;vertical-align:top;">session_filename</td><td style="vertical-align:top;">:</td><td><div>/home/marian/web2py/applications/PyDoctor/sessions/127.0.0.1-fbc9da0c-a356-4930-9b1a-ea5f66f8c91a</div></td></tr><tr><td style="font-weight:bold;vertical-align:top;">session_hash</td><td style="vertical-align:top;">:</td><td><div>cb26a1d10894cb5f504566692daf385e</div></td></tr><tr><td style="font-weight:bold;vertical-align:top;">session_id</td><td style="vertical-align:top;">:</td><td><div>127.0.0.1-fbc9da0c-a356-4930-9b1a-ea5f66f8c91a</div></td></tr><tr><td style="font-weight:bold;vertical-align:top;">session_id_name</td><td style="vertical-align:top;">:</td><td><div>session_id_pydoctor</div></td></tr><tr><td style="font-weight:bold;vertical-align:top;">session_locked</td><td style="vertical-align:top;">:</td><td><div>True</div></td></tr><tr><td style="font-weight:bold;vertical-align:top;">session_masterapp</td><td style="vertical-align:top;">:</td><td><div>PyDoctor</div></td></tr><tr><td style="font-weight:bold;vertical-align:top;">session_new</td><td style="vertical-align:top;">:</td><td><div>False</div></td></tr><tr><td style="font-weight:bold;vertical-align:top;">session_storage_type</td><td style="vertical-align:top;">:</td><td><div>file</div></td></tr><tr><td style="font-weight:bold;vertical-align:top;">status</td><td style="vertical-align:top;">:</td><td><div>200</div></td></tr><tr><td style="font-weight:bold;vertical-align:top;">subtitle</td><td style="vertical-align:top;">:</td><td><div>Administraci\xc3\xb3n de Base de Datos (appadmin)</div></td></tr><tr><td style="font-weight:bold;vertical-align:top;">title</td><td style="vertical-align:top;">:</td><td><div>Pydoctor</div></td></tr><tr><td style="font-weight:bold;vertical-align:top;">view</td><td style="vertical-align:top;">:</td><td><div>appadmin.html</div></td></tr></table></div>'
tRp247
sS'locals'
p248
(dp249
S'self'
p250
S'<applications.PyDoctor.modules.html2text._html2text instance>'
p251
sS'data'
p252
S'None'
p253
sssS'traceback'
p254
S'Traceback (most recent call last):\n  File "/home/marian/web2py/gluon/restricted.py", line 227, in restricted\n    exec ccode in environment\n  File "/home/marian/web2py/applications/PyDoctor/views/appadmin.html", line 175, in <module>\n    {{if ram[\'bytes\'] > 524287:}}\n  File "/home/marian/web2py/gluon/sqlhtml.py", line 3284, in __init__\n    r = represent(field, r, record)\n  File "/home/marian/web2py/gluon/sqlhtml.py", line 70, in represent\n    return f(value, record)\n  File "/home/marian/web2py/applications/PyDoctor/models/db_pydoctor.py", line 6, in advanced_repr\n    mdtext=html2text.html2text(value)\n  File "applications/PyDoctor/modules/html2text.py", line 700, in html2text\n    return optwrap(html2text_file(html, None, baseurl))\n  File "applications/PyDoctor/modules/html2text.py", line 695, in html2text_file\n    h.feed(html)\n  File "applications/PyDoctor/modules/html2text.py", line 284, in feed\n    data = data.replace("</\' + \'script>", "</ignore>")\nAttributeError: \'NoneType\' object has no attribute \'replace\'\n'
p255
s.