(dp1
S'output'
p2
S'missing "pass" in view'
p3
sS'layer'
p4
S'ParserContainer'
p5
sS'code'
p6
S'response.write(\'<!DOCTYPE html>\\n<!--[if (gt IE 9)|!(IE)]><!--> <html class="no-js" lang="\', escape=False)\nresponse.write(T.accepted_language or \'en\')\nresponse.write(\'"> <!--<![endif]-->\\n  <head>\\n    <meta charset="utf-8">\\n    <!-- www.phpied.com/conditional-comments-block-downloads/ -->\\n    <!-- Always force latest IE rendering engine\\n         (even in intranet) & Chrome Frame\\n         Remove this if you use the .htaccess -->\\n    <meta http-equiv="X-UA-Compatible" content="IE=edge\', escape=False)\nresponse.write(not request.is_local and \',chrome=1\' or \'\')\nresponse.write(\'">\\n    <!--  Mobile Viewport Fix\\n          j.mp/mobileviewport & davidbcalhoun.com/2010/viewport-metatag\\n          device-width: Occupy full width of the screen in its current orientation\\n          initial-scale = 1.0 retains dimensions instead of zooming out if page height > device height\\n          user-scalable = yes allows the user to zoom in -->\\n    <meta name="viewport" content="width=device-width, initial-scale=1.0">\\n    <title>\', escape=False)\nresponse.write(response.title or request.application)\nresponse.write(\'</title>\\n    <!-- http://dev.w3.org/html5/markup/meta.name.html -->\\n    <meta name="application-name" content="\', escape=False)\nresponse.write(request.application)\nresponse.write(\'">\\n    <!-- Speaking of Google, don\\\'t forget to set your site up:\\n         http://google.com/webmasters -->\\n    <meta name="google-site-verification" content="">\\n    <!-- include stylesheets -->\\n    <link rel="stylesheet" href="\', escape=False)\nresponse.write(URL(\'static\',\'css/bootstrap.min.css\'))\nresponse.write(\'"/>\\n    <link rel="stylesheet" href="\', escape=False)\nresponse.write(URL(\'static\',\'css/web2py-bootstrap3.css\'))\nresponse.write(\'"/>\\n    <link rel="shortcut icon" href="\', escape=False)\nresponse.write(URL(\'static\',\'images/favicon.ico\'))\nresponse.write(\'" type="image/x-icon">\\n    <link rel="apple-touch-icon" href="\', escape=False)\nresponse.write(URL(\'static\',\'images/favicon.png\'))\nresponse.write(\'">\\n    <!-- All JavaScript at the bottom, except for Modernizr which enables\\n         HTML5 elements & feature detects -->\\n    <script src="\', escape=False)\nresponse.write(URL(\'static\',\'js/modernizr-2.8.3.min.js\'))\nresponse.write(\'"></script>\\n    <script type="text/javascript" src="\', escape=False)\nresponse.write(URL(request.application,\'static\',\'js/ckeditor/ckeditor.js\'))\nresponse.write(\'"></script>\\n      \\n    <!--[if lt IE 9]>\\n        <script src="\', escape=False)\nresponse.write(URL(\'static\',\'js/respond-1.4.2.min.js\'))\nresponse.write(\'"></script>\\n        <![endif]-->\\n    <!-- Favicons -->\\n    \', escape=False)\nresponse.write(\'<script type="text/javascript"><!--\\n    // These variables are used by the web2py_ajax_init function in web2py_ajax.js (which is loaded below).\\n    var w2p_ajax_confirm_message = "\', escape=False)\nresponse.write(T(\'Are you sure you want to delete this object?\'))\nresponse.write(\'";\\n    var w2p_ajax_disable_with_message = "\', escape=False)\nresponse.write(T(\'Working...\'))\nresponse.write(\'";\\n    var w2p_ajax_date_format = "\', escape=False)\nresponse.write(T(\'%Y-%m-%d\'))\nresponse.write(\'";\\n    var w2p_ajax_datetime_format = "\', escape=False)\nresponse.write(T(\'%Y-%m-%d %H:%M:%S\'))\nresponse.write(\'";\\n    var ajax_error_500 = \\\'\', escape=False)\nresponse.write(T.M(\'An error occured, please [[reload %s]] the page\') % URL(args=request.args, vars=request.get_vars))\nresponse.write("\'\\n    //--></script>\\n", escape=False)\nresponse.files.insert(0,URL(\'static\',\'js/jquery.js\'))\nresponse.files.insert(1,URL(\'static\',\'css/calendar.css\'))\nresponse.files.insert(2,URL(\'static\',\'js/calendar.js\'))\nresponse.files.insert(3,URL(\'static\',\'js/web2py.js\'))\nresponse.include_meta()\nresponse.include_files()\nresponse.write(\'\\n\', escape=False)\nresponse.write(\' <!-- this includes jquery.js, calendar.js/.css and web2py.js -->\\n    \', escape=False)\nresponse.write(\'\\n    \', escape=False)\n# using sidebars need to know what sidebar you want to use\nmc0 = \'col-md-12\'\nmc1 = \'col-md-9\'\nmc2 = \'col-md-6\'\nleft_sidebar_enabled = globals().get(\'left_sidebar_enabled\', False)\nright_sidebar_enabled = globals().get(\'right_sidebar_enabled\', False)\nmiddle_column = {0: mc0, 1: mc1, 2: mc2}[\n(left_sidebar_enabled and 1 or 0)+(right_sidebar_enabled and 1 or 0)]\nresponse.write(\'\\n  </head>\\n  <body>\\n    <!--[if lt IE 8]><p class="browserupgrade">You are using an <strong>outdated</strong> browser. Please <a href="http://browsehappy.com/">upgrade your browser</a> to improve your experience.</p><![endif]-->\\n    <div class="w2p_flash alert alert-dismissable">\', escape=False)\nresponse.write(response.flash or \'\')\nresponse.write(\'</div>\\n    <!-- Navbar ======================================= -->\\n    <nav class="navbar navbar-default navbar-fixed-top" role="navigation">\\n      <div class="container-fluid">\\n        <div class="navbar-header">\\n          <button type="button" class="navbar-toggle" data-toggle="collapse" data-target=".navbar-collapse">\\n            <span class="sr-only">Toggle navigation</span>\\n            <span class="icon-bar"></span>\\n            <span class="icon-bar"></span>\\n            <span class="icon-bar"></span>\\n          </button>\\n          \', escape=False)\nresponse.write(response.logo or \'\')\nresponse.write(\'\\n        </div>\\n        <div class="collapse navbar-collapse navbar-ex1-collapse">\\n          <ul class="nav navbar-nav navbar-right">\\n            \', escape=False)\nresponse.write(\'auth\' in globals() and auth.navbar(\'Welcome\',mode=\'dropdown\') or \'\')\nresponse.write(\'\\n          </ul>\\n          \', escape=False)\nif response.menu:\n    response.write(\'\\n          \', escape=False)\n    response.write(MENU(response.menu, _class=\'nav navbar-nav\',li_class=\'dropdown\',ul_class=\'dropdown-menu\'))\n    response.write(\'\\n          \', escape=False)\n    pass\nresponse.write(\'\\n        </div>\\n      </div>\\n    </nav>\\n    <!-- Masthead ===================================== -->    \\n    \', escape=False)\nresponse.write(\'\\n    \', escape=False)\nresponse.write(\'\\n    <!-- Main ========================================= -->\\n    <!-- Begin page content -->\\n    <div class="container-fluid main-container">\\n      \', escape=False)\nif left_sidebar_enabled:\n    response.write(\'\\n        <div class="col-md-3 left-sidebar">\\n            \', escape=False)\n    response.write(\'\\n            <h3>Left Sidebar</h3>\\n            <p></p>\\n            \', escape=False)\n    response.write(\'\\n        </div>\\n      \', escape=False)\n    pass\nresponse.write(\'\\n\\n      <div class="\', escape=False)\nresponse.write(middle_column)\nresponse.write(\'">\\n        \', escape=False)\nresponse.write(\'\\n        \', escape=False)\nresponse.write(\'\\n<h1>Expedientes</h1>\\n\', escape=False)\nif request.args[1]:\n    response.write(\'\\n    <p>\\n        \', escape=False)\n    response.write(request.args[1]:)\n    response.write(\'\\n</p>\\n\', escape=False)\n    response.write(grid)\n    response.write(\'\\n\', escape=False)\n    response.write(\'\\n        \', escape=False)\n    response.write(\'\\n      </div>\\n\\n      \', escape=False)\n    if right_sidebar_enabled:\n        response.write(\'\\n        <div class="col-md-3">\\n            \', escape=False)\n        response.write(\'\\n            <h3>Right Sidebar</h3>\\n            <p></p>\\n            \', escape=False)\n        response.write(\'\\n        </div>\\n      \', escape=False)\n        pass\n    response.write(\'\\n\\n    </div>\\n\\n    \', escape=False)\n    response.write(\' <!-- this is default footer -->      \\n    <footer class="footer">\\n      <div class="container-fluid">\\n        <div class="copyright pull-left">\', escape=False)\n    response.write(T(\'Copyright\'))\n    response.write(\' &#169; \', escape=False)\n    response.write(request.now.year)\n    response.write(\'</div>\\n          <div id="poweredBy" class="pull-right">\\n            \', escape=False)\n    response.write(T(\'Powered by\'))\n    response.write(\'\\n            <a href="http://www.web2py.com/">web2py</a>\\n          </div>\\n      </div>\\n    </footer>\\n    \', escape=False)\n    response.write(\'\\n    <!-- The javascript =============================== -->\\n    <script src="\', escape=False)\n    response.write(URL(\'static\',\'js/bootstrap.min.js\'))\n    response.write(\'"></script>\\n    <script src="\', escape=False)\n    response.write(URL(\'static\',\'js/web2py-bootstrap3.js\'))\n    response.write(\'"></script>\\n    \', escape=False)\n    response.write(\'\\n    \', escape=False)\n    if response.google_analytics_id:\n        response.write(\'\\n    <!-- Analytics ==================================== -->\\n    <script src="\', escape=False)\n        response.write(URL(\'static\',\'js/analytics.min.js\'))\n        response.write(\'"></script>\\n    <script type="text/javascript">\\n      analytics.initialize({\\n      \\\'Google Analytics\\\':{trackingId:\\\'\', escape=False)\n        response.write(response.google_analytics_id)\n        response.write("\'}\\n      });\\n    </script>\\n    ", escape=False)\n        pass\n    response.write(\'\\n    <!-- Share ============================y============ -->\\n    <script src="\', escape=False)\n    response.write(URL(\'static\',\'js/share.js\',vars=dict(static=URL(\'static\',\'images\'))))\n    response.write(\'"></script>\\n      \', escape=False)\n    if DEVELOPMENT_MENU:\n        response.write(\'\\n      \', escape=False)\n        response.write(BEAUTIFY(response._vars))\n        response.write(\'\\n      \', escape=False)\n        pass\n    response.write(\'\\n    <!-- This makes autocomplete look like any other form-control wowwww!  -->\\n    <script>\\n        $(".string").addClass("form-control")\\n    </script>\\n  </body>\\n</html>\\n\', escape=False)'
p7
sS'snapshot'
p8
(dp9
S'exception'
p10
(dp11
S'__module__'
p12
S"'gluon.rocket'"
p13
sS'__getslice__'
p14
S"<method-wrapper '__getslice__' of SocketClosed object>"
p15
sS'__str__'
p16
S"<method-wrapper '__str__' of SocketClosed object>"
p17
sS'__reduce__'
p18
S'<built-in method __reduce__ of SocketClosed object>'
p19
sS'__dict__'
p20
S'{}'
p21
sS'__sizeof__'
p22
S'<built-in method __sizeof__ of SocketClosed object>'
p23
sS'__weakref__'
p24
S'None'
p25
sS'__init__'
p26
S"<method-wrapper '__init__' of SocketClosed object>"
p27
sS'__setattr__'
p28
S"<method-wrapper '__setattr__' of SocketClosed object>"
p29
sS'__reduce_ex__'
p30
S'<built-in method __reduce_ex__ of SocketClosed object>'
p31
sS'__new__'
p32
S'<built-in method __new__ of type object>'
p33
sS'__format__'
p34
S'<built-in method __format__ of SocketClosed object>'
p35
sS'__class__'
p36
S"<class 'gluon.rocket.SocketClosed'>"
p37
sS'__doc__'
p38
S"'Exception for when a socket is closed by the client.'"
p39
sS'__getitem__'
p40
S"<method-wrapper '__getitem__' of SocketClosed object>"
p41
sS'__setstate__'
p42
S'<built-in method __setstate__ of SocketClosed object>'
p43
sS'__getattribute__'
p44
S"<method-wrapper '__getattribute__' of SocketClosed object>"
p45
sS'args'
p46
S"('Client closed socket.',)"
p47
sS'__subclasshook__'
p48
S'<built-in method __subclasshook__ of type object>'
p49
sS'__unicode__'
p50
S'<built-in method __unicode__ of SocketClosed object>'
p51
sS'__delattr__'
p52
S"<method-wrapper '__delattr__' of SocketClosed object>"
p53
sS'__repr__'
p54
S"<method-wrapper '__repr__' of SocketClosed object>"
p55
sS'__hash__'
p56
S"<method-wrapper '__hash__' of SocketClosed object>"
p57
ssS'evalue'
p58
S'Client closed socket.'
p59
sS'frames'
p60
(lp61
(dp62
S'file'
p63
S'/home/marian/web2py/gluon/rocket.py'
p64
sS'dump'
p65
(dp66
S'self'
p67
S'<WSGIWorker(Thread-12, started daemon 140435204851456)>'
p68
sS'conn'
p69
S'<gluon.rocket.Connection object>'
p70
sS'self.run_app'
p71
S'<bound method WSGIWorker.run_app of <WSGIWorker(Thread-12, started daemon 140435204851456)>>'
p72
ssS'lnum'
p73
I1337
sS'lines'
p74
(dp75
I1332
S'            # Enter connection serve loop'
p76
sI1333
S'            while True:'
p77
sI1334
S'                if __debug__:'
p78
sI1335
S"                    self.err_log.debug('Serving a request')"
p79
sI1336
S'                try:'
p80
sI1337
S'                    self.run_app(conn)'
p81
sI1338
S'                except:'
p82
sI1339
S'                    exc = sys.exc_info()'
p83
sI1340
S'                    handled = self._handleError(*exc)'
p84
sI1341
S'                    if handled:'
p85
ssS'call'
p86
S'(self=<WSGIWorker(Thread-12, started daemon 140435204851456)>)'
p87
sS'func'
p88
S'run'
p89
sa(dp90
g63
S'/home/marian/web2py/gluon/rocket.py'
p91
sg65
(dp92
S'self'
p93
S'<WSGIWorker(Thread-12, started daemon 140435204851456)>'
p94
sS'self.environ'
p95
S"{'HTTP_ACCEPT': 'text/html,application/xhtml+xml,application/xml;q=0.9,*/*;q=0.8', 'HTTP_ACCEPT_ENCODING': 'gzip, deflate', 'HTTP_ACCEPT_LANGUAGE': 'es-AR,es;q=0.8,en-US;q=0.5,en;q=0.3', 'HTTP_CONNECTION': 'keep-alive', 'HTTP_COOKIE': 'session_id_welcome=127.0.0.1-e5b242fe-becc-48c4-...or=127.0.0.1-10f2d84c-aadc-4453-afb2-def813679ea3', 'HTTP_HOST': '127.0.0.1:8000', 'HTTP_REFERER': 'http://127.0.0.1:8000/PyDoctor/default/admin_exp...ignature=7b51f58c786aa6e32ee13360685bb4d7d11a38f7', 'HTTP_USER_AGENT': 'Mozilla/5.0 (X11; Ubuntu; Linux x86_64; rv:43.0) Gecko/20100101 Firefox/43.0', 'PATH_INFO': '/PyDoctor/default/admin_expedientes/expediente/movimiento.expediente_id/1', 'QUERY_STRING': '_signature=0cce3052da5a8c3a365974ed9ca2a487ae0d1d58', ...}"
p96
sS'sock_file'
p97
S'<socket._fileobject object>'
p98
sS'environ'
p99
S'undefined'
p100
sS'self.build_environ'
p101
S'<bound method WSGIWorker.build_environ of <WSGIWorker(Thread-12, started daemon 140435204851456)>>'
p102
sS'conn'
p103
S'<gluon.rocket.Connection object>'
p104
ssg73
I1830
sg74
(dp105
I1825
S'        else:'
p106
sI1826
S'            sock_file = conn.makefile(BUF_SIZE)'
p107
sI1827
S''
sI1828
S'        try:'
p108
sI1829
S'            # Read the headers and build our WSGI environment'
p109
sI1830
S'            self.environ = environ = self.build_environ(sock_file, conn)'
p110
sI1831
S''
sI1832
S'            # Handle 100 Continue'
p111
sI1833
S"            if environ.get('HTTP_EXPECT', '') == '100-continue':"
p112
sI1834
S"                res = environ['SERVER_PROTOCOL'] + ' 100 Continue\\r\\n\\r\\n'"
p113
ssg86
S'(self=<WSGIWorker(Thread-12, started daemon 140435204851456)>, conn=<gluon.rocket.Connection object>)'
p114
sg88
S'run_app'
p115
sa(dp116
g63
S'/home/marian/web2py/gluon/rocket.py'
p117
sg65
(dp118
S'sock_file'
p119
S'<socket._fileobject object>'
p120
sS'self.read_request_line'
p121
S'<bound method WSGIWorker.read_request_line of <W...rker(Thread-12, started daemon 140435204851456)>>'
p122
sS'self'
p123
S'<WSGIWorker(Thread-12, started daemon 140435204851456)>'
p124
sS'request'
p125
g100
ssg73
I1650
sg74
(dp126
I1645
S'                                      "wsgiorg.futures": executor.futures})'
p127
sI1646
S''
sI1647
S'    def build_environ(self, sock_file, conn):'
p128
sI1648
S'        """ Build the execution environment. """'
p129
sI1649
S'        # Grab the request line'
p130
sI1650
S'        request = self.read_request_line(sock_file)'
p131
sI1651
S''
sI1652
S'        # Copy the Base Environment'
p132
sI1653
S'        environ = self.base_environ.copy()'
p133
sI1654
S''
ssg86
S'(self=<WSGIWorker(Thread-12, started daemon 140435204851456)>, sock_file=<socket._fileobject object>, conn=<gluon.rocket.Connection object>)'
p134
sg88
S'build_environ'
p135
sa(dp136
g63
S'/home/marian/web2py/gluon/rocket.py'
p137
sg65
(dp138
S'global SocketClosed'
p139
S"<class 'gluon.rocket.SocketClosed'>"
p140
ssg73
I1413
sg74
(dp141
I1408
S''
sI1409
S'        if not d:'
p142
sI1410
S'            if __debug__:'
p143
sI1411
S'                self.err_log.debug('
p144
sI1412
S"                    'Client did not send a recognizable request.')"
p145
sI1413
S"            raise SocketClosed('Client closed socket.')"
p146
sI1414
S''
sI1415
S'        self.request_line = d'
p147
sI1416
S''
sI1417
S"        # NOTE: I've replaced the traditional method of procedurally breaking"
p148
ssg86
S'(self=<WSGIWorker(Thread-12, started daemon 140435204851456)>, sock_file=<socket._fileobject object>)'
p149
sg88
S'read_request_line'
p150
sasS'pyver'
p151
S'Python 2.7.10: /usr/bin/python (prefix: /usr)'
p152
sS'etype'
p153
S"<class 'gluon.rocket.SocketClosed'>"
p154
sS'date'
p155
S'Sun Jan 31 17:34:47 2016'
p156
sS'locals'
p157
(dp158
S'sock_file'
p159
S'<socket._fileobject object>'
p160
sS'self'
p161
S'<WSGIWorker(Thread-12, started daemon 140435204851456)>'
p162
sS'd'
S"''"
p163
sssS'traceback'
p164
S'Traceback (most recent call last):\n  File "/home/marian/web2py/gluon/rocket.py", line 1337, in run\n    self.run_app(conn)\n  File "/home/marian/web2py/gluon/rocket.py", line 1830, in run_app\n    self.environ = environ = self.build_environ(sock_file, conn)\n  File "/home/marian/web2py/gluon/rocket.py", line 1650, in build_environ\n    request = self.read_request_line(sock_file)\n  File "/home/marian/web2py/gluon/rocket.py", line 1413, in read_request_line\n    raise SocketClosed(\'Client closed socket.\')\nSocketClosed: Client closed socket.\n'
p165
s.