(dp1
S'output'
p2
S"<type 'exceptions.NotImplementedError'> "
p3
sS'layer'
p4
S'/home/marian/web2py/applications/PyDoctor/models/db_pydoctor.py'
p5
sS'code'
p6
S'# -*- coding: utf-8 -*-\nimport html2text\nfrom gluon.contrib.markdown.markdown2 import markdown\n\ndef advanced_repr(value, row):\n    mdtext=html2text.html2text(value)\n    if len(mdtext)>=500:\n        mdtext=mdtext[:500]+\' ...\'\n    mdtext=mdtext.replace(\'\\n\',\' \')\n    return XML(markdown(mdtext))\n\ndb = DAL(\'sqlite://storage_new.sqlite\')\nfrom gluon.tools import *\n\ndef advanced_editor(field, value):\n    return TEXTAREA(_id = str(field).replace(\'.\',\'_\'),\n                    _name=field.name,\n                    _class=\'text ckeditor\',\n                    value=value, _cols=80, _rows=10)\n\nauth = Auth(globals(),db)\nauth.define_tables()\ncrud = Crud(globals(),db)\n\ndb.define_table(\'persona\',\n                Field(\'sexo\',requires = IS_IN_SET({\'F\':\'Femenino\', \'M\':\'Masculino\', \'J\':\'Persona Jur\xc3\xaddica\'},\n                                                   zero=T(\'Elija persona jur\xc3\xaddica o sexo\'),\n                                                   error_message=\'debe elegir persona jur\xc3\xaddica o sexo persona f\xc3\xadsica\')),\n                Field(\'apellido\',required=True,label=T(\'Apellido o Raz\xc3\xb3n Social\')),\n                Field(\'nombre\',label=T(\'Nombre\')),\n                Field(\'cuitcuil\',required=True,label=T(\'CUIT/CUIL\')),\n                Field(\'domicilio\',required=True,label=T(\'Domicilio\')),\n                Field(\'email\',requires=IS_EMPTY_OR(IS_EMAIL()),label=T(\'E-Mail\')),\n                Field(\'observaciones\',\'text\',label=T(\'Observaciones\'),\n                      widget = advanced_editor,\n                      represent = advanced_repr ),\n                Field(\'telefono\',label=T(\'Tel\xc3\xa9fono\')),\n                Field(\'celular\',label=T(\'Celular\')),\n                Field(\'fotografia\',\'upload\',requires = IS_EMPTY_OR(IS_IMAGE())),\n                Field(\'matricula\',label=T(\'Matr\xc3\xadcula\'),comment=T(\'Matr\xc3\xadcula profesional de abogado\')),\n                Field(\'domiciliolegal\',label=T(\'Domicilio Legal\'),comment=T(\'Domicilio legal del abogado\')),\n                auth.signature,\n               format=XML(\'<b>%(apellido)s,%(nombre)s</b> %(cuitcuil)s\'))\ndb.persona.id.readable=db.persona.id.writable=False\n\ndb.define_table(\'fuero\',\n                Field(\'descripcion\',required=True,label=T(\'Descripci\xc3\xb3n\')),\n               format=\'%(descripcion)s\')\ndb.fuero.id.readable=db.fuero.id.writable=False\n\ndb.define_table(\'instancia\',\n                Field(\'descripcion\',required=True,label=T(\'Descripci\xc3\xb3n\')),\n               format=\'%(descripcion)s\')\ndb.instancia.id.readable=db.instancia.id.writable=False\n\ndb.define_table(\'juzgado\',\n                Field(\'descripcion\',required=True,label=T(\'Descripci\xc3\xb3n\')),\n                Field(\'fuero_id\',db.fuero,label=T(\'Fuero\')),\n                Field(\'instancia_id\',db.instancia,label=T(\'Instancia\')),\n                auth.signature,\n                format=\'%(descripcion)s\')\ndb.juzgado.fuero_id.widget = SQLFORM.widgets.autocomplete(\n     request, db.fuero.descripcion, id_field=db.fuero.id)\ndb.juzgado.instancia_id.widget = SQLFORM.widgets.autocomplete(\n     request, db.instancia.descripcion, id_field=db.instancia.id)\ndb.juzgado.fuero_id.requires = IS_IN_DB(db,db.fuero.id,\'%(descripcion)s\')\ndb.juzgado.instancia_id.requires = IS_IN_DB(db,db.instancia.id,\'%(descripcion)s\')\ndb.juzgado.descripcion.requires = IS_NOT_IN_DB(db, \'juzgado.descripcion\')\ndb.juzgado.id.readable=db.juzgado.id.writable=False\n\n#Listado de tipos de proceso posibles.\ndb.define_table(\'tipoproceso\',\n               Field(\'descripcion\',required=True,label=T(\'Descripci\xc3\xb3n\')),\n               format=\'%(descripcion)s\',\n               singular=T(\'Tipo de proceso\'),\n               plural=T(\'Tipo de proceso\'),)\ndb.fuero.id.readable=db.fuero.id.writable=False\n\ndb.define_table(\'expediente\',\n                Field(\'numero\',requires = IS_NOT_IN_DB(db, \'expediente.numero\'),label=T(\'N\xc2\xba de expediente\')),\n                Field(\'caratula\',required=True, label=T(\'Car\xc3\xa1tula\')),\n                Field(\'juzgado_id\',db.juzgado, label=T(\'Origen\'),\n                      comment=T(\'Juzgado o Fiscal\xc3\xada de origen\')),\n                Field(\'inicio\',\'date\', label=T(\'Fecha inicio\')),\n                Field(\'final\',\'date\', label=T(\'Fecha fin\')),\n                auth.signature,\n               format=\'%(numero)s %(caratula)s\')\n#widget = lambda field, value:\n    #SQLFORM.widgets.string.widget(field, value, _class=\'my-string\')\ndb.expediente.id.readable=db.expediente.id.writable=False\ndb.expediente.juzgado_id.widget = SQLFORM.widgets.autocomplete(\n     request, db.juzgado.descripcion, id_field=db.juzgado.id)\n\n\ndb.define_table(\'movimiento\',\n                Field(\'expediente_id\',db.expediente),\n                Field(\'estado\',requires = IS_IN_SET({\'P\':\'Procesal\', \'E\':\'Extraprocesal\'},\n                                                   zero=None,\n                                                   error_message=\'Seleccione estado del movimiento\')),\n                Field(\'titulo\',required=True, label=T(\'T\xc3\xadtulo\')),\n                Field(\'texto\',\'text\',label=T(\'Texto\'),\n                      requires = IS_NOT_EMPTY(),\n                      widget = advanced_editor,\n                      represent = advanced_repr ),\n                Field(\'archivo\',\'upload\'),\n                auth.signature,\n                singular = T("Movimiento"), plural = T("Movimientos"),\n               format=\'%(titulo)s\')\ndb.movimiento.expediente_id.readable=db.movimiento.expediente_id.writable=False\ndb.movimiento.id.readable=db.movimiento.id.writable=False\n\ncolors=[(T(\'Urgente\'),\'#b94a48\'),\n         (T(\'Prioritario\'),\'#c09853\'),\n         (T(\'Importante\'),\'#446e9b\'),\n         (T(\'Recordar\'),\'#468847\')]\nprioridad_set=dict([(k,v[0]) for k,v in enumerate(colors)])\n\'\'\'\n446e9b\tblue\nc09853\tyellow\nb94a48\tred\n468847\tgreen\'\'\'\n\ndef agenda_titulo(value,row):\n    if row.estado == \'P\':\n        value=B(value)\n    elif row.estado == \'C\':\n        value=I(value)\n    value=P(value,_style="color:%s"%colors[int(row.prioridad)][1])\n    return value\n\ndb.define_table(\'agenda\',\n                Field(\'expediente_id\',db.expediente),\n                Field(\'vencimiento\',\'datetime\',label=T(\'Vence en\')),\n                Field(\'cumplido\',\'datetime\',label=T(\'Cumplido el\')),\n                Field(\'prioridad\',requires = IS_IN_SET(prioridad_set,\n                                                   zero=None,\n                                                   error_message=\'Elija una prioridad\')),\n                Field(\'estado\',requires = IS_IN_SET({\'P\': T(\'Pendiente\'), \'C\':T(\'Cancelada\'), \'R\': T(\'Realizada\')},\n                                                   zero=None,\n                                                   error_message=T(\'Establezca un estado\'))),\n                Field(\'titulo\',required=True, label=T(\'T\xc3\xadtulo\'), represent = agenda_titulo),\n                Field(\'texto\',\'text\',label=T(\'Texto\'),widget = advanced_editor, represent = advanced_repr),\n                auth.signature)\ndb.agenda.expediente_id.readable=db.agenda.expediente_id.writable=False\ndb.agenda.id.readable=db.agenda.id.writable=False\n\ndb.define_table(\'parte\',\n                Field(\'expediente_id\',db.expediente),\n                Field(\'persona_id\',db.persona,label=T(\'Persona\')),\n                Field(\'caracter\',label=T(\'Car\xc3\xa1cter\'),comment=T(\'Car\xc3\xa1cter en que se presenta la parte: actor, demandado, imputado, etc\')),\n                Field(\'observaciones\',\'text\',widget = advanced_editor, represent = advanced_repr ),\n                auth.signature)\ndb.parte.expediente_id.readable=db.parte.expediente_id.writable=False\ndb.parte.id.readable=db.parte.id.writable=False\n'
p7
sS'snapshot'
p8
(dp9
S'exception'
p10
(dp11
S'__hash__'
p12
S"<method-wrapper '__hash__' of exceptions.NotImplementedError object>"
p13
sS'__setattr__'
p14
S"<method-wrapper '__setattr__' of exceptions.NotImplementedError object>"
p15
sS'__reduce_ex__'
p16
S'<built-in method __reduce_ex__ of exceptions.NotImplementedError object>'
p17
sS'__getslice__'
p18
S"<method-wrapper '__getslice__' of exceptions.NotImplementedError object>"
p19
sS'__getitem__'
p20
S"<method-wrapper '__getitem__' of exceptions.NotImplementedError object>"
p21
sS'__setstate__'
p22
S'<built-in method __setstate__ of exceptions.NotImplementedError object>'
p23
sS'args'
p24
S'()'
p25
sS'__reduce__'
p26
S'<built-in method __reduce__ of exceptions.NotImplementedError object>'
p27
sS'__str__'
p28
S"<method-wrapper '__str__' of exceptions.NotImplementedError object>"
p29
sS'__format__'
p30
S'<built-in method __format__ of exceptions.NotImplementedError object>'
p31
sS'__getattribute__'
p32
S"<method-wrapper '__getattribute__' of exceptions.NotImplementedError object>"
p33
sS'__class__'
p34
S"<type 'exceptions.NotImplementedError'>"
p35
sS'__unicode__'
p36
S'<built-in method __unicode__ of exceptions.NotImplementedError object>'
p37
sS'__delattr__'
p38
S"<method-wrapper '__delattr__' of exceptions.NotImplementedError object>"
p39
sS'__subclasshook__'
p40
S'<built-in method __subclasshook__ of type object>'
p41
sS'__repr__'
p42
S"<method-wrapper '__repr__' of exceptions.NotImplementedError object>"
p43
sS'__dict__'
p44
S'{}'
p45
sS'__sizeof__'
p46
S'<built-in method __sizeof__ of exceptions.NotImplementedError object>'
p47
sS'__doc__'
p48
S'"Method or function hasn\'t been implemented yet."'
p49
sS'__init__'
p50
S"<method-wrapper '__init__' of exceptions.NotImplementedError object>"
p51
sS'__new__'
p52
S'<built-in method __new__ of type object>'
p53
ssS'evalue'
p54
S''
sS'request'
p55
cgluon.html
XML_unpickle
p56
(S's\xf6^\x00\x00<div><table><tr><td style="font-weight:bold;vertical-align:top;">ajax</td><td style="vertical-align:top;">:</td><td><div>True</div></td></tr><tr><td style="font-weight:bold;vertical-align:top;">application</td><td style="vertical-align:top;">:</td><td><div>PyDoctor</div></td></tr><tr><td style="font-weight:bold;vertical-align:top;">args</td><td style="vertical-align:top;">:</td><td><div><table></table></div></td></tr><tr><td style="font-weight:bold;vertical-align:top;">cid</td><td style="vertical-align:top;">:</td><td><div>c834454497721</div></td></tr><tr><td style="font-weight:bold;vertical-align:top;">client</td><td style="vertical-align:top;">:</td><td><div>127.0.0.1</div></td></tr><tr><td style="font-weight:bold;vertical-align:top;">controller</td><td style="vertical-align:top;">:</td><td><div>appadmin</div></td></tr><tr><td style="font-weight:bold;vertical-align:top;">cookies</td><td style="vertical-align:top;">:</td><td><div><table><tr><td style="font-weight:bold;vertical-align:top;">session_id_admin</td><td style="vertical-align:top;">:</td><td><div>127.0.0.1-2a4b7f5e-d835-4d83-86c6-914407c2d4ee<table><tr><td style="font-weight:bold;vertical-align:top;">comment</td><td style="vertical-align:top;">:</td><td><div></div></td></tr><tr><td style="font-weight:bold;vertical-align:top;">domain</td><td style="vertical-align:top;">:</td><td><div></div></td></tr><tr><td style="font-weight:bold;vertical-align:top;">expires</td><td style="vertical-align:top;">:</td><td><div></div></td></tr><tr><td style="font-weight:bold;vertical-align:top;">httponly</td><td style="vertical-align:top;">:</td><td><div></div></td></tr><tr><td style="font-weight:bold;vertical-align:top;">max-age</td><td style="vertical-align:top;">:</td><td><div></div></td></tr><tr><td style="font-weight:bold;vertical-align:top;">path</td><td style="vertical-align:top;">:</td><td><div></div></td></tr><tr><td style="font-weight:bold;vertical-align:top;">secure</td><td style="vertical-align:top;">:</td><td><div></div></td></tr><tr><td style="font-weight:bold;vertical-align:top;">version</td><td style="vertical-align:top;">:</td><td><div></div></td></tr></table></div></td></tr><tr><td style="font-weight:bold;vertical-align:top;">session_id_pydoctor</td><td style="vertical-align:top;">:</td><td><div>127.0.0.1-fbc9da0c-a356-4930-9b1a-ea5f66f8c91a<table><tr><td style="font-weight:bold;vertical-align:top;">comment</td><td style="vertical-align:top;">:</td><td><div></div></td></tr><tr><td style="font-weight:bold;vertical-align:top;">domain</td><td style="vertical-align:top;">:</td><td><div></div></td></tr><tr><td style="font-weight:bold;vertical-align:top;">expires</td><td style="vertical-align:top;">:</td><td><div></div></td></tr><tr><td style="font-weight:bold;vertical-align:top;">httponly</td><td style="vertical-align:top;">:</td><td><div></div></td></tr><tr><td style="font-weight:bold;vertical-align:top;">max-age</td><td style="vertical-align:top;">:</td><td><div></div></td></tr><tr><td style="font-weight:bold;vertical-align:top;">path</td><td style="vertical-align:top;">:</td><td><div></div></td></tr><tr><td style="font-weight:bold;vertical-align:top;">secure</td><td style="vertical-align:top;">:</td><td><div></div></td></tr><tr><td style="font-weight:bold;vertical-align:top;">version</td><td style="vertical-align:top;">:</td><td><div></div></td></tr></table></div></td></tr><tr><td style="font-weight:bold;vertical-align:top;">session_id_welcome</td><td style="vertical-align:top;">:</td><td><div>127.0.0.1-28d0de20-c662-49ad-a209-1fc7b4ad606a<table><tr><td style="font-weight:bold;vertical-align:top;">comment</td><td style="vertical-align:top;">:</td><td><div></div></td></tr><tr><td style="font-weight:bold;vertical-align:top;">domain</td><td style="vertical-align:top;">:</td><td><div></div></td></tr><tr><td style="font-weight:bold;vertical-align:top;">expires</td><td style="vertical-align:top;">:</td><td><div></div></td></tr><tr><td style="font-weight:bold;vertical-align:top;">httponly</td><td style="vertical-align:top;">:</td><td><div></div></td></tr><tr><td style="font-weight:bold;vertical-align:top;">max-age</td><td style="vertical-align:top;">:</td><td><div></div></td></tr><tr><td style="font-weight:bold;vertical-align:top;">path</td><td style="vertical-align:top;">:</td><td><div></div></td></tr><tr><td style="font-weight:bold;vertical-align:top;">secure</td><td style="vertical-align:top;">:</td><td><div></div></td></tr><tr><td style="font-weight:bold;vertical-align:top;">version</td><td style="vertical-align:top;">:</td><td><div></div></td></tr></table></div></td></tr></table></div></td></tr><tr><td style="font-weight:bold;vertical-align:top;">env</td><td style="vertical-align:top;">:</td><td><div><table><tr><td style="font-weight:bold;vertical-align:top;">HTTP_ACCEPT</td><td style="vertical-align:top;">:</td><td><div>*/*</div></td></tr><tr><td style="font-weight:bold;vertical-align:top;">HTTP_ACCEPT_ENCODING</td><td style="vertical-align:top;">:</td><td><div>gzip, deflate</div></td></tr><tr><td style="font-weight:bold;vertical-align:top;">HTTP_ACCEPT_LANGUAGE</td><td style="vertical-align:top;">:</td><td><div>en-US,en;q=0.5</div></td></tr><tr><td style="font-weight:bold;vertical-align:top;">HTTP_CONNECTION</td><td style="vertical-align:top;">:</td><td><div>keep-alive</div></td></tr><tr><td style="font-weight:bold;vertical-align:top;">HTTP_COOKIE</td><td style="vertical-align:top;">:</td><td><div>session_id_welcome=127.0.0.1-28d0de20-c662-49ad-a209-1fc7b4ad606a; session_id_admin=127.0.0.1-2a4b7f5e-d835-4d83-86c6-914407c2d4ee; session_id_pydoctor=127.0.0.1-fbc9da0c-a356-4930-9b1a-ea5f66f8c91a</div></td></tr><tr><td style="font-weight:bold;vertical-align:top;">HTTP_HOST</td><td style="vertical-align:top;">:</td><td><div>127.0.0.1:8000</div></td></tr><tr><td style="font-weight:bold;vertical-align:top;">HTTP_REFERER</td><td style="vertical-align:top;">:</td><td><div>http://127.0.0.1:8000/admin/default/edit/PyDoctor/views/default/agenda.html?id=views__default__agenda__html</div></td></tr><tr><td style="font-weight:bold;vertical-align:top;">HTTP_USER_AGENT</td><td style="vertical-align:top;">:</td><td><div>Mozilla/5.0 (X11; Ubuntu; Linux x86_64; rv:44.0) Gecko/20100101 Firefox/44.0</div></td></tr><tr><td style="font-weight:bold;vertical-align:top;">HTTP_WEB2PY_COMPONENT_ELEMENT</td><td style="vertical-align:top;">:</td><td><div>c834454497721</div></td></tr><tr><td style="font-weight:bold;vertical-align:top;">HTTP_WEB2PY_COMPONENT_LOCATION</td><td style="vertical-align:top;">:</td><td><div>http://127.0.0.1:8000/admin/default/edit/PyDoctor/views/default/agenda.html?id=views__default__agenda__html</div></td></tr><tr><td style="font-weight:bold;vertical-align:top;">HTTP_X_REQUESTED_WITH</td><td style="vertical-align:top;">:</td><td><div>XMLHttpRequest</div></td></tr><tr><td style="font-weight:bold;vertical-align:top;">PATH_INFO</td><td style="vertical-align:top;">:</td><td><div>/PyDoctor/appadmin/hooks</div></td></tr><tr><td style="font-weight:bold;vertical-align:top;">QUERY_STRING</td><td style="vertical-align:top;">:</td><td><div></div></td></tr><tr><td style="font-weight:bold;vertical-align:top;">REMOTE_ADDR</td><td style="vertical-align:top;">:</td><td><div>127.0.0.1</div></td></tr><tr><td style="font-weight:bold;vertical-align:top;">REMOTE_PORT</td><td style="vertical-align:top;">:</td><td><div>52932</div></td></tr><tr><td style="font-weight:bold;vertical-align:top;">REQUEST_METHOD</td><td style="vertical-align:top;">:</td><td><div>GET</div></td></tr><tr><td style="font-weight:bold;vertical-align:top;">SCRIPT_NAME</td><td style="vertical-align:top;">:</td><td><div></div></td></tr><tr><td style="font-weight:bold;vertical-align:top;">SERVER_NAME</td><td style="vertical-align:top;">:</td><td><div>marian-GA-MA770T-UD3</div></td></tr><tr><td style="font-weight:bold;vertical-align:top;">SERVER_PORT</td><td style="vertical-align:top;">:</td><td><div>8000</div></td></tr><tr><td style="font-weight:bold;vertical-align:top;">SERVER_PROTOCOL</td><td style="vertical-align:top;">:</td><td><div>HTTP/1.1</div></td></tr><tr><td style="font-weight:bold;vertical-align:top;">SERVER_SOFTWARE</td><td style="vertical-align:top;">:</td><td><div>Rocket 1.2.6</div></td></tr><tr><td style="font-weight:bold;vertical-align:top;">app_folders</td><td style="vertical-align:top;">:</td><td><div>set([&#x27;/home/marian/web2py/applications/welcome/&#x27;, &#x27;/home/marian/web2py/applications/PyDoctor/&#x27;, &#x27;/home/marian/web2py/applications/admin/&#x27;])</div></td></tr><tr><td style="font-weight:bold;vertical-align:top;">applications_parent</td><td style="vertical-align:top;">:</td><td><div>/home/marian/web2py</div></td></tr><tr><td style="font-weight:bold;vertical-align:top;">cmd_args</td><td style="vertical-align:top;">:</td><td><div><table></table></div></td></tr><tr><td style="font-weight:bold;vertical-align:top;">cmd_options</td><td style="vertical-align:top;">:</td><td><div>&lt;Values at 0x7fa00fb1ad40: {&#x27;verbose&#x27;: False, &#x27;ip&#x27;: &#x27;127.0.0.1&#x27;, &#x27;debuglevel&#x27;: 30, &#x27;with_scheduler&#x27;: False, &#x27;ips&#x27;: [&#x27;127.0.1.1&#x27;], &#x27;shutdown_timeout&#x27;: 5, &#x27;taskbar&#x27;: False, &#x27;with_coverage&#x27;: False, &#x27;scheduler_groups&#x27;: None, &#x27;port&#x27;: 8000, &#x27;maxthreads&#x27;: None, &#x27;softcron&#x27;: False, &#x27;server_name&#x27;: &#x27;marian-GA-MA770T-UD3&#x27;, &#x27;bpython&#x27;: False, &#x27;nogui&#x27;: False, &#x27;pid_filename&#x27;: &#x27;httpserver.pid&#x27;, &#x27;print_errors&#x27;: False, &#x27;extcron&#x27;: False, &#x27;runcron&#x27;: False, &#x27;run_system_tests&#x27;: False, &#x27;test&#x27;: None, &#x27;folder&#x27;: &#x27;/home/marian/web2py&#x27;, &#x27;config&#x27;: &#x27;&#x27;, &#x27;minthreads&#x27;: None, &#x27;shell&#x27;: None, &#x27;run&#x27;: &#x27;&#x27;, &#x27;log_filename&#x27;: &#x27;httpserver.log&#x27;, &#x27;profiler_dir&#x27;: None, &#x27;args&#x27;: [&#x27;&#x27;], &#x27;socket_timeout&#x27;: 5, &#x27;ssl_ca_certificate&#x27;: None, &#x27;scheduler&#x27;: None, &#x27;interfaces&#x27;: None, &#x27;ssl_private_key&#x27;: &#x27;&#x27;, &#x27;gae&#x27;: None, &#x27;password&#x27;: &#x27;&lt;ask&gt;&#x27;, &#x27;request_queue_size&#x27;: 5, &#x27;ssl_certificate&#x27;: &#x27;&#x27;, &#x27;cronjob&#x27;: False, &#x27;numthreads&#x27;: None, &#x27;quiet&#x27;: False, &#x27;import_models&#x27;: False, &#x27;timeout&#x27;: 10, &#x27;plain&#x27;: False, &#x27;nobanner&#x27;: False}&gt;</div></td></tr><tr><td style="font-weight:bold;vertical-align:top;">db_sessions</td><td style="vertical-align:top;">:</td><td><div>set([])</div></td></tr><tr><td style="font-weight:bold;vertical-align:top;">debugging</td><td style="vertical-align:top;">:</td><td><div>True</div></td></tr><tr><td style="font-weight:bold;vertical-align:top;">gluon_parent</td><td style="vertical-align:top;">:</td><td><div>/home/marian/web2py</div></td></tr><tr><td style="font-weight:bold;vertical-align:top;">http_accept</td><td style="vertical-align:top;">:</td><td><div>*/*</div></td></tr><tr><td style="font-weight:bold;vertical-align:top;">http_accept_encoding</td><td style="vertical-align:top;">:</td><td><div>gzip, deflate</div></td></tr><tr><td style="font-weight:bold;vertical-align:top;">http_accept_language</td><td style="vertical-align:top;">:</td><td><div>en-US,en;q=0.5</div></td></tr><tr><td style="font-weight:bold;vertical-align:top;">http_connection</td><td style="vertical-align:top;">:</td><td><div>keep-alive</div></td></tr><tr><td style="font-weight:bold;vertical-align:top;">http_cookie</td><td style="vertical-align:top;">:</td><td><div>session_id_welcome=127.0.0.1-28d0de20-c662-49ad-a209-1fc7b4ad606a; session_id_admin=127.0.0.1-2a4b7f5e-d835-4d83-86c6-914407c2d4ee; session_id_pydoctor=127.0.0.1-fbc9da0c-a356-4930-9b1a-ea5f66f8c91a</div></td></tr><tr><td style="font-weight:bold;vertical-align:top;">http_host</td><td style="vertical-align:top;">:</td><td><div>127.0.0.1:8000</div></td></tr><tr><td style="font-weight:bold;vertical-align:top;">http_referer</td><td style="vertical-align:top;">:</td><td><div>http://127.0.0.1:8000/admin/default/edit/PyDoctor/views/default/agenda.html?id=views__default__agenda__html</div></td></tr><tr><td style="font-weight:bold;vertical-align:top;">http_user_agent</td><td style="vertical-align:top;">:</td><td><div>Mozilla/5.0 (X11; Ubuntu; Linux x86_64; rv:44.0) Gecko/20100101 Firefox/44.0</div></td></tr><tr><td style="font-weight:bold;vertical-align:top;">http_web2py_component_element</td><td style="vertical-align:top;">:</td><td><div>c834454497721</div></td></tr><tr><td style="font-weight:bold;vertical-align:top;">http_web2py_component_location</td><td style="vertical-align:top;">:</td><td><div>http://127.0.0.1:8000/admin/default/edit/PyDoctor/views/default/agenda.html?id=views__default__agenda__html</div></td></tr><tr><td style="font-weight:bold;vertical-align:top;">http_x_requested_with</td><td style="vertical-align:top;">:</td><td><div>XMLHttpRequest</div></td></tr><tr><td style="font-weight:bold;vertical-align:top;">is_jython</td><td style="vertical-align:top;">:</td><td><div>False</div></td></tr><tr><td style="font-weight:bold;vertical-align:top;">is_pypy</td><td style="vertical-align:top;">:</td><td><div>False</div></td></tr><tr><td style="font-weight:bold;vertical-align:top;">is_source</td><td style="vertical-align:top;">:</td><td><div>True</div></td></tr><tr><td style="font-weight:bold;vertical-align:top;">local_hosts</td><td style="vertical-align:top;">:</td><td><div><table><tr><td><div>::1</div></td></tr><tr><td><div>127.0.1.1</div></td></tr><tr><td><div>::ffff:127.0.0.1</div></td></tr><tr><td><div>127.0.0.1</div></td></tr><tr><td><div>marian-GA-MA770T-UD3</div></td></tr></table></div></td></tr><tr><td style="font-weight:bold;vertical-align:top;">path_info</td><td style="vertical-align:top;">:</td><td><div>/PyDoctor/appadmin/hooks</div></td></tr><tr><td style="font-weight:bold;vertical-align:top;">query_string</td><td style="vertical-align:top;">:</td><td><div></div></td></tr><tr><td style="font-weight:bold;vertical-align:top;">remote_addr</td><td style="vertical-align:top;">:</td><td><div>127.0.0.1</div></td></tr><tr><td style="font-weight:bold;vertical-align:top;">remote_port</td><td style="vertical-align:top;">:</td><td><div>52932</div></td></tr><tr><td style="font-weight:bold;vertical-align:top;">request_method</td><td style="vertical-align:top;">:</td><td><div>GET</div></td></tr><tr><td style="font-weight:bold;vertical-align:top;">request_uri</td><td style="vertical-align:top;">:</td><td><div>/PyDoctor/appadmin/hooks</div></td></tr><tr><td style="font-weight:bold;vertical-align:top;">script_name</td><td style="vertical-align:top;">:</td><td><div></div></td></tr><tr><td style="font-weight:bold;vertical-align:top;">server_name</td><td style="vertical-align:top;">:</td><td><div>marian-GA-MA770T-UD3</div></td></tr><tr><td style="font-weight:bold;vertical-align:top;">server_port</td><td style="vertical-align:top;">:</td><td><div>8000</div></td></tr><tr><td style="font-weight:bold;vertical-align:top;">server_protocol</td><td style="vertical-align:top;">:</td><td><div>HTTP/1.1</div></td></tr><tr><td style="font-weight:bold;vertical-align:top;">server_software</td><td style="vertical-align:top;">:</td><td><div>Rocket 1.2.6</div></td></tr><tr><td style="font-weight:bold;vertical-align:top;">web2py_path</td><td style="vertical-align:top;">:</td><td><div>/home/marian/web2py</div></td></tr><tr><td style="font-weight:bold;vertical-align:top;">web2py_version</td><td style="vertical-align:top;">:</td><td><div>2.13.3-stable+timestamp.2015.12.24.08.08.22</div></td></tr><tr><td style="font-weight:bold;vertical-align:top;">wsgi.errors</td><td style="vertical-align:top;">:</td><td><div>&lt;open file &#x27;&lt;stderr&gt;&#x27;, mode &#x27;w&#x27; at 0x7fa016b571e0&gt;</div></td></tr><tr><td style="font-weight:bold;vertical-align:top;">wsgi.file_wrapper</td><td style="vertical-align:top;">:</td><td><div>&lt;class wsgiref.util.FileWrapper at 0x7fa00fb48390&gt;</div></td></tr><tr><td style="font-weight:bold;vertical-align:top;">wsgi.input</td><td style="vertical-align:top;">:</td><td><div>&lt;socket._fileobject object at 0x7f9fcf39f7d0&gt;</div></td></tr><tr><td style="font-weight:bold;vertical-align:top;">wsgi.multiprocess</td><td style="vertical-align:top;">:</td><td><div>False</div></td></tr><tr><td style="font-weight:bold;vertical-align:top;">wsgi.multithread</td><td style="vertical-align:top;">:</td><td><div>True</div></td></tr><tr><td style="font-weight:bold;vertical-align:top;">wsgi.run_once</td><td style="vertical-align:top;">:</td><td><div>False</div></td></tr><tr><td style="font-weight:bold;vertical-align:top;">wsgi.url_scheme</td><td style="vertical-align:top;">:</td><td><div>http</div></td></tr><tr><td style="font-weight:bold;vertical-align:top;">wsgi.version</td><td style="vertical-align:top;">:</td><td><div><table><tr><td><div>1</div></td></tr><tr><td><div>0</div></td></tr></table></div></td></tr><tr><td style="font-weight:bold;vertical-align:top;">wsgi_errors</td><td style="vertical-align:top;">:</td><td><div>&lt;open file &#x27;&lt;stderr&gt;&#x27;, mode &#x27;w&#x27; at 0x7fa016b571e0&gt;</div></td></tr><tr><td style="font-weight:bold;vertical-align:top;">wsgi_file_wrapper</td><td style="vertical-align:top;">:</td><td><div>&lt;class wsgiref.util.FileWrapper at 0x7fa00fb48390&gt;</div></td></tr><tr><td style="font-weight:bold;vertical-align:top;">wsgi_input</td><td style="vertical-align:top;">:</td><td><div>&lt;socket._fileobject object at 0x7f9fcf39f7d0&gt;</div></td></tr><tr><td style="font-weight:bold;vertical-align:top;">wsgi_multiprocess</td><td style="vertical-align:top;">:</td><td><div>False</div></td></tr><tr><td style="font-weight:bold;vertical-align:top;">wsgi_multithread</td><td style="vertical-align:top;">:</td><td><div>True</div></td></tr><tr><td style="font-weight:bold;vertical-align:top;">wsgi_run_once</td><td style="vertical-align:top;">:</td><td><div>False</div></td></tr><tr><td style="font-weight:bold;vertical-align:top;">wsgi_url_scheme</td><td style="vertical-align:top;">:</td><td><div>http</div></td></tr><tr><td style="font-weight:bold;vertical-align:top;">wsgi_version</td><td style="vertical-align:top;">:</td><td><div><table><tr><td><div>1</div></td></tr><tr><td><div>0</div></td></tr></table></div></td></tr></table></div></td></tr><tr><td style="font-weight:bold;vertical-align:top;">extension</td><td style="vertical-align:top;">:</td><td><div>html</div></td></tr><tr><td style="font-weight:bold;vertical-align:top;">folder</td><td style="vertical-align:top;">:</td><td><div>/home/marian/web2py/applications/PyDoctor/</div></td></tr><tr><td style="font-weight:bold;vertical-align:top;">function</td><td style="vertical-align:top;">:</td><td><div>hooks</div></td></tr><tr><td style="font-weight:bold;vertical-align:top;">global_settings</td><td style="vertical-align:top;">:</td><td><div><table><tr><td style="font-weight:bold;vertical-align:top;">app_folders</td><td style="vertical-align:top;">:</td><td><div>set([&#x27;/home/marian/web2py/applications/welcome/&#x27;, &#x27;/home/marian/web2py/applications/PyDoctor/&#x27;, &#x27;/home/marian/web2py/applications/admin/&#x27;])</div></td></tr><tr><td style="font-weight:bold;vertical-align:top;">applications_parent</td><td style="vertical-align:top;">:</td><td><div>/home/marian/web2py</div></td></tr><tr><td style="font-weight:bold;vertical-align:top;">cmd_args</td><td style="vertical-align:top;">:</td><td><div><table></table></div></td></tr><tr><td style="font-weight:bold;vertical-align:top;">cmd_options</td><td style="vertical-align:top;">:</td><td><div>&lt;Values at 0x7fa00fb1ad40: {&#x27;verbose&#x27;: False, &#x27;ip&#x27;: &#x27;127.0.0.1&#x27;, &#x27;debuglevel&#x27;: 30, &#x27;with_scheduler&#x27;: False, &#x27;ips&#x27;: [&#x27;127.0.1.1&#x27;], &#x27;shutdown_timeout&#x27;: 5, &#x27;taskbar&#x27;: False, &#x27;with_coverage&#x27;: False, &#x27;scheduler_groups&#x27;: None, &#x27;port&#x27;: 8000, &#x27;maxthreads&#x27;: None, &#x27;softcron&#x27;: False, &#x27;server_name&#x27;: &#x27;marian-GA-MA770T-UD3&#x27;, &#x27;bpython&#x27;: False, &#x27;nogui&#x27;: False, &#x27;pid_filename&#x27;: &#x27;httpserver.pid&#x27;, &#x27;print_errors&#x27;: False, &#x27;extcron&#x27;: False, &#x27;runcron&#x27;: False, &#x27;run_system_tests&#x27;: False, &#x27;test&#x27;: None, &#x27;folder&#x27;: &#x27;/home/marian/web2py&#x27;, &#x27;config&#x27;: &#x27;&#x27;, &#x27;minthreads&#x27;: None, &#x27;shell&#x27;: None, &#x27;run&#x27;: &#x27;&#x27;, &#x27;log_filename&#x27;: &#x27;httpserver.log&#x27;, &#x27;profiler_dir&#x27;: None, &#x27;args&#x27;: [&#x27;&#x27;], &#x27;socket_timeout&#x27;: 5, &#x27;ssl_ca_certificate&#x27;: None, &#x27;scheduler&#x27;: None, &#x27;interfaces&#x27;: None, &#x27;ssl_private_key&#x27;: &#x27;&#x27;, &#x27;gae&#x27;: None, &#x27;password&#x27;: &#x27;&lt;ask&gt;&#x27;, &#x27;request_queue_size&#x27;: 5, &#x27;ssl_certificate&#x27;: &#x27;&#x27;, &#x27;cronjob&#x27;: False, &#x27;numthreads&#x27;: None, &#x27;quiet&#x27;: False, &#x27;import_models&#x27;: False, &#x27;timeout&#x27;: 10, &#x27;plain&#x27;: False, &#x27;nobanner&#x27;: False}&gt;</div></td></tr><tr><td style="font-weight:bold;vertical-align:top;">db_sessions</td><td style="vertical-align:top;">:</td><td><div>set([])</div></td></tr><tr><td style="font-weight:bold;vertical-align:top;">debugging</td><td style="vertical-align:top;">:</td><td><div>True</div></td></tr><tr><td style="font-weight:bold;vertical-align:top;">gluon_parent</td><td style="vertical-align:top;">:</td><td><div>/home/marian/web2py</div></td></tr><tr><td style="font-weight:bold;vertical-align:top;">is_jython</td><td style="vertical-align:top;">:</td><td><div>False</div></td></tr><tr><td style="font-weight:bold;vertical-align:top;">is_pypy</td><td style="vertical-align:top;">:</td><td><div>False</div></td></tr><tr><td style="font-weight:bold;vertical-align:top;">is_source</td><td style="vertical-align:top;">:</td><td><div>True</div></td></tr><tr><td style="font-weight:bold;vertical-align:top;">local_hosts</td><td style="vertical-align:top;">:</td><td><div><table><tr><td><div>::1</div></td></tr><tr><td><div>127.0.1.1</div></td></tr><tr><td><div>::ffff:127.0.0.1</div></td></tr><tr><td><div>127.0.0.1</div></td></tr><tr><td><div>marian-GA-MA770T-UD3</div></td></tr></table></div></td></tr><tr><td style="font-weight:bold;vertical-align:top;">web2py_version</td><td style="vertical-align:top;">:</td><td><div>2.13.3-stable+timestamp.2015.12.24.08.08.22</div></td></tr></table></div></td></tr><tr><td style="font-weight:bold;vertical-align:top;">is_https</td><td style="vertical-align:top;">:</td><td><div>False</div></td></tr><tr><td style="font-weight:bold;vertical-align:top;">is_local</td><td style="vertical-align:top;">:</td><td><div>True</div></td></tr><tr><td style="font-weight:bold;vertical-align:top;">is_restful</td><td style="vertical-align:top;">:</td><td><div>False</div></td></tr><tr><td style="font-weight:bold;vertical-align:top;">is_scheduler</td><td style="vertical-align:top;">:</td><td><div>False</div></td></tr><tr><td style="font-weight:bold;vertical-align:top;">is_shell</td><td style="vertical-align:top;">:</td><td><div>False</div></td></tr><tr><td style="font-weight:bold;vertical-align:top;">now</td><td style="vertical-align:top;">:</td><td><div>datetime.datetime(2016, 2, 3, 23, 17, 48, 878491)</div></td></tr><tr><td style="font-weight:bold;vertical-align:top;">raw_args</td><td style="vertical-align:top;">:</td><td><div></div></td></tr><tr><td style="font-weight:bold;vertical-align:top;">raw_extension</td><td style="vertical-align:top;">:</td><td><div>None</div></td></tr><tr><td style="font-weight:bold;vertical-align:top;">url</td><td style="vertical-align:top;">:</td><td><div>/PyDoctor/appadmin/hooks</div></td></tr><tr><td style="font-weight:bold;vertical-align:top;">utcnow</td><td style="vertical-align:top;">:</td><td><div>datetime.datetime(2016, 2, 4, 2, 17, 48, 878508)</div></td></tr><tr><td style="font-weight:bold;vertical-align:top;">wsgi</td><td style="vertical-align:top;">:</td><td><div>&lt;gluon.main.LazyWSGI object at 0x7f9fcff175d0&gt;</div></td></tr></table></div>'
tRp57
sS'frames'
p58
(lp59
(dp60
S'file'
p61
S'/home/marian/web2py/gluon/restricted.py'
p62
sS'dump'
p63
(dp64
S'environment'
p65
S"{'A': <class 'gluon.html.A'>, 'ANY_OF': <class 'gluon.validators.ANY_OF'>, 'ASSIGNJS': <function ASSIGNJS>, 'AppConfig': <function AppConfig>, 'Auth': <class 'gluon.tools.Auth'>, 'B': <class 'gluon.html.B'>, 'BEAUTIFY': <class 'gluon.html.BEAUTIFY'>, 'BODY': <class 'gluon.html.BODY'>, 'BR': <class 'gluon.html.BR'>, 'BUTTON': <class 'gluon.html.BUTTON'>, ...}"
p66
sS'ccode'
p67
S'<code object <module> at 0x7f9fd4d8a830, file "/...ications/PyDoctor/models/db_pydoctor.py", line 2>'
p68
ssS'lnum'
p69
I227
sS'lines'
p70
(dp71
I224
S'            ccode = code'
p72
sI225
S'        else:'
p73
sI226
S'            ccode = compile2(code, layer)'
p74
sI227
S'        exec ccode in environment'
p75
sI228
S'    except HTTP:'
p76
sI229
S'        raise'
p77
sI230
S'    except RestrictedError:'
p78
sI231
S'        # do not encapsulate (obfuscate) the original RestrictedError'
p79
sI222
S'    try:'
p80
sI223
S'        if isinstance(code, types.CodeType):'
p81
ssS'call'
p82
S"(code='# -*- coding: utf-8 -*-\\nimport html2text\\nfrom gl...\\ndb.parte.id.readable=db.parte.id.writable=False\\n', environment={'A': <class 'gluon.html.A'>, 'ANY_OF': <class 'gluon.validators.ANY_OF'>, 'ASSIGNJS': <function ASSIGNJS>, 'AppConfig': <function AppConfig>, 'Auth': <class 'gluon.tools.Auth'>, 'B': <class 'gluon.html.B'>, 'BEAUTIFY': <class 'gluon.html.BEAUTIFY'>, 'BODY': <class 'gluon.html.BODY'>, 'BR': <class 'gluon.html.BR'>, 'BUTTON': <class 'gluon.html.BUTTON'>, ...}, layer='/home/marian/web2py/applications/PyDoctor/models/db_pydoctor.py')"
p83
sS'func'
p84
S'restricted'
p85
sa(dp86
g61
S'/home/marian/web2py/applications/PyDoctor/models/db_pydoctor.py'
p87
sg63
(dp88
S'auth.signature'
p89
S'<Table auth_signature (id,is_active,created_on,created_by,modified_on,modified_by)>'
p90
sS'auth'
p91
S'<gluon.tools.Auth object>'
p92
ssg69
I152
sg70
(dp93
I145
S'db.agenda.id.readable=db.agenda.id.writable=False'
p94
sI146
S''
sI147
S"db.define_table('parte',"
p95
sI148
S"                Field('expediente_id',db.expediente),"
p96
sI149
S"                Field('persona_id',db.persona,label=T('Persona')),"
p97
sI150
S"                Field('caracter',label=T('Car\xc3\xa1cter'),comment=T('Car\xc3\xa1cter en que se presenta la parte: actor, demandado, imputado, etc')),"
p98
sI151
S"                Field('observaciones','text',widget = advanced_editor, represent = advanced_repr ),"
p99
sI152
S'                auth.signature)'
p100
sI153
S'db.parte.expediente_id.readable=db.parte.expediente_id.writable=False'
p101
sI154
S'db.parte.id.readable=db.parte.id.writable=False'
p102
ssg82
S'()'
p103
sg84
S'<module>'
p104
sa(dp105
g61
S'/home/marian/web2py/gluon/packages/dal/pydal/base.py'
p106
sg63
(dp107
S'fields'
p108
S'(<pydal.objects.Field object>, <pydal.objects.Field object>, <pydal.objects.Field object>, <pydal.objects.Field object>, <Table auth_signature (id,is_active,created_on,created_by,modified_on,modified_by)>)'
p109
sS'self'
p110
S'<DAL uri="sqlite://storage_new.sqlite">'
p111
sS'args'
p112
g45
sS'tablename'
p113
S"'parte'"
p114
sS'table'
p115
S'undefined'
p116
sS'self.lazy_define_table'
p117
S'<bound method DAL.lazy_define_table of <DAL uri="sqlite://storage_new.sqlite">>'
p118
ssg69
I834
sg70
(dp119
I832
S'            table = None'
p120
sI833
S'        else:'
p121
sI834
S'            table = self.lazy_define_table(tablename,*fields,**args)'
p122
sI835
S'        if not tablename in self.tables:'
p123
sI836
S'            self.tables.append(tablename)'
p124
sI837
S'        return table'
p125
sI838
S''
sI829
S'                    % (tablename,invalid_args))'
p126
sI830
S'        if self._lazy_tables and tablename not in self._LAZY_TABLES:'
p127
sI831
S'            self._LAZY_TABLES[tablename] = (tablename,fields,args)'
p128
ssg82
S'(self=<DAL uri="sqlite://storage_new.sqlite">, tablename=\'parte\', *fields=(<pydal.objects.Field object>, <pydal.objects.Field object>, <pydal.objects.Field object>, <pydal.objects.Field object>, <Table auth_signature (id,is_active,created_on,created_by,modified_on,modified_by)>), **args={})'
p129
sg84
S'define_table'
p130
sa(dp131
g61
S'/home/marian/web2py/gluon/packages/dal/pydal/base.py'
p132
sg63
(dp133
S'field'
p134
S'<pydal.objects.Field object>'
p135
sS'global auto_validators'
p136
S'<function auto_validators>'
p137
sS'field.requires'
p138
S'<function <lambda>>'
p139
ssg69
I858
sg70
(dp140
I853
S'        self[tablename] = table'
p141
sI854
S'        # must follow above line to handle self references'
p142
sI855
S'        table._create_references()'
p143
sI856
S'        for field in table:'
p144
sI857
S'            if field.requires == DEFAULT:'
p145
sI858
S'                field.requires = auto_validators(field)'
p146
sI859
S'            if field.represent is None:'
p147
sI860
S'                field.represent = auto_represent(field)'
p148
sI861
S''
sI862
S"        migrate = self._migrate_enabled and args_get('migrate',self._migrate)"
p149
ssg82
S'(self=<DAL uri="sqlite://storage_new.sqlite">, tablename=\'parte\', *fields=(<pydal.objects.Field object>, <pydal.objects.Field object>, <pydal.objects.Field object>, <pydal.objects.Field object>, <Table auth_signature (id,is_active,created_on,created_by,modified_on,modified_by)>), **args={})'
p150
sg84
S'lazy_define_table'
p151
sa(dp152
g61
S'/home/marian/web2py/gluon/packages/dal/pydal/helpers/methods.py'
p153
sg63
(dp154
S'field'
p155
S'<pydal.objects.Field object>'
p156
sS'db.validators_method'
p157
S'<bound method DAL._default_validators of <DAL uri="sqlite://storage_new.sqlite">>'
p158
sS'db'
p159
S'<DAL uri="sqlite://storage_new.sqlite">'
p160
ssg69
I238
sg70
(dp161
I233
S'            field_type = field_type.type'
p162
sI234
S'    elif not isinstance(field_type, str):'
p163
sI235
S'        return []'
p164
sI236
S'    #: if a custom method is provided, call it'
p165
sI237
S'    if callable(db.validators_method):'
p166
sI238
S'        return db.validators_method(field)'
p167
sI239
S'    #: apply validators from validators dict if present'
p168
sI240
S'    if not db.validators or not isinstance(db.validators, dict):'
p169
sI241
S'        return []'
p170
sI242
S'    field_validators = db.validators.get(field_type, [])'
p171
ssg82
S'(field=<pydal.objects.Field object>)'
p172
sg84
S'auto_validators'
p173
sa(dp174
g61
S'/home/marian/web2py/gluon/dal.py'
p175
sg63
(dp176
S'referenced._format'
p177
S'<gluon.html.XML object>'
p178
sS'referenced'
p179
S'<Table persona (id,sexo,apellido,nombre,cuitcuil...e,created_on,created_by,modified_on,modified_by)>'
p180
ssg69
I54
sg70
(dp181
I49
S"            field_type.find('.') < 0 and \\"
p182
sI50
S'            field_type[10:] in db.tables:'
p183
sI51
S'        referenced = db[field_type[10:]]'
p184
sI52
S"        if hasattr(referenced, '_format') and referenced._format:"
p185
sI53
S'            requires = validators.IS_IN_DB(db, referenced._id,'
p186
sI54
S'                                           referenced._format)'
p187
sI55
S'            if field.unique:'
p188
sI56
S'                requires._and = validators.IS_NOT_IN_DB(db, field)'
p189
sI57
S'            if field.tablename == field_type[10:]:'
p190
sI58
S'                return validators.IS_EMPTY_OR(requires)'
p191
ssg82
S'(db=<DAL uri="sqlite://storage_new.sqlite">, field=<pydal.objects.Field object>)'
p192
sg84
S'_default_validators'
p193
sa(dp194
g61
S'/home/marian/web2py/gluon/validators.py'
p195
sg63
(dp196
S'builtinNotImplementedError'
p197
S"<type 'exceptions.NotImplementedError'>"
p198
ssg69
I547
sg70
(dp199
I544
S'        elif callable(label):'
p200
sI545
S"            fieldnames = '*'"
p201
sI546
S'        else:'
p202
sI547
S'            raise NotImplementedError'
p203
sI548
S'        self.field = field # the lookup field'
p204
sI549
S'        self.fieldnames = fieldnames # fields requires to build the formatting'
p205
sI550
S'        self.label = label'
p206
sI551
S'        self.ktable = ktable'
p207
sI542
S'            fieldnames = [label.name, kfield] # kfield must be last'
p208
sI543
S"            label = '%%(%s)s' % label.name"
p209
ssg82
S'(self=<gluon.validators.IS_IN_DB object>, dbset=<DAL uri="sqlite://storage_new.sqlite">, field=<pydal.objects.Field object>, label=<gluon.html.XML object>, error_message=\'Value not in database\', orderby=None, groupby=None, distinct=None, cache=None, multiple=False, zero=\'\', sort=False, _and=None, left=None, delimiter=None, auto_add=False)'
p210
sg84
g50
sasS'pyver'
p211
S'Python 2.7.10: /usr/bin/python (prefix: /usr)'
p212
sS'session'
p213
g56
(S's\xe4\x08\x00\x00<div><table><tr><td style="font-weight:bold;vertical-align:top;">auth</td><td style="vertical-align:top;">:</td><td><div><table><tr><td style="font-weight:bold;vertical-align:top;">expiration</td><td style="vertical-align:top;">:</td><td><div>3600</div></td></tr><tr><td style="font-weight:bold;vertical-align:top;">hmac_key</td><td style="vertical-align:top;">:</td><td><div>41e4c1eb-c37b-4084-b342-7b0d1a86f3d2</div></td></tr><tr><td style="font-weight:bold;vertical-align:top;">last_visit</td><td style="vertical-align:top;">:</td><td><div>datetime.datetime(2016, 2, 3, 23, 12, 48, 876490)</div></td></tr><tr><td style="font-weight:bold;vertical-align:top;">remember_me</td><td style="vertical-align:top;">:</td><td><div>False</div></td></tr><tr><td style="font-weight:bold;vertical-align:top;">user</td><td style="vertical-align:top;">:</td><td><div><table><tr><td style="font-weight:bold;vertical-align:top;">email</td><td style="vertical-align:top;">:</td><td><div>user2@root.com</div></td></tr><tr><td style="font-weight:bold;vertical-align:top;">first_name</td><td style="vertical-align:top;">:</td><td><div>user2</div></td></tr><tr><td style="font-weight:bold;vertical-align:top;">id</td><td style="vertical-align:top;">:</td><td><div>2L</div></td></tr><tr><td style="font-weight:bold;vertical-align:top;">last_name</td><td style="vertical-align:top;">:</td><td><div>user2</div></td></tr><tr><td style="font-weight:bold;vertical-align:top;">registration_id</td><td style="vertical-align:top;">:</td><td><div></div></td></tr><tr><td style="font-weight:bold;vertical-align:top;">registration_key</td><td style="vertical-align:top;">:</td><td><div></div></td></tr><tr><td style="font-weight:bold;vertical-align:top;">reset_password_key</td><td style="vertical-align:top;">:</td><td><div></div></td></tr></table></div></td></tr><tr><td style="font-weight:bold;vertical-align:top;">user_groups</td><td style="vertical-align:top;">:</td><td><div><table><tr><td style="font-weight:bold;vertical-align:top;">2</td><td style="vertical-align:top;">:</td><td><div>user_2</div></td></tr></table></div></td></tr></table></div></td></tr><tr><td style="font-weight:bold;vertical-align:top;">flash</td><td style="vertical-align:top;">:</td><td><div>None</div></td></tr></table></div>'
tRp214
sS'etype'
p215
S"<type 'exceptions.NotImplementedError'>"
p216
sS'date'
p217
S'Wed Feb  3 23:17:49 2016'
p218
sS'response'
p219
g56
(S's\xfc\x17\x00\x00<div><table><tr><td style="font-weight:bold;vertical-align:top;">body</td><td style="vertical-align:top;">:</td><td><div>&lt;cStringIO.StringO object at 0x7f9fcf9f53e8&gt;</div></td></tr><tr><td style="font-weight:bold;vertical-align:top;">cookies</td><td style="vertical-align:top;">:</td><td><div><table><tr><td style="font-weight:bold;vertical-align:top;">session_id_pydoctor</td><td style="vertical-align:top;">:</td><td><div>127.0.0.1-fbc9da0c-a356-4930-9b1a-ea5f66f8c91a<table><tr><td style="font-weight:bold;vertical-align:top;">comment</td><td style="vertical-align:top;">:</td><td><div></div></td></tr><tr><td style="font-weight:bold;vertical-align:top;">domain</td><td style="vertical-align:top;">:</td><td><div></div></td></tr><tr><td style="font-weight:bold;vertical-align:top;">expires</td><td style="vertical-align:top;">:</td><td><div></div></td></tr><tr><td style="font-weight:bold;vertical-align:top;">httponly</td><td style="vertical-align:top;">:</td><td><div></div></td></tr><tr><td style="font-weight:bold;vertical-align:top;">max-age</td><td style="vertical-align:top;">:</td><td><div></div></td></tr><tr><td style="font-weight:bold;vertical-align:top;">path</td><td style="vertical-align:top;">:</td><td><div>/</div></td></tr><tr><td style="font-weight:bold;vertical-align:top;">secure</td><td style="vertical-align:top;">:</td><td><div></div></td></tr><tr><td style="font-weight:bold;vertical-align:top;">version</td><td style="vertical-align:top;">:</td><td><div></div></td></tr></table></div></td></tr></table></div></td></tr><tr><td style="font-weight:bold;vertical-align:top;">delimiters</td><td style="vertical-align:top;">:</td><td><div><table><tr><td><div>{{</div></td></tr><tr><td><div>}}</div></td></tr></table></div></td></tr><tr><td style="font-weight:bold;vertical-align:top;">files</td><td style="vertical-align:top;">:</td><td><div><table></table></div></td></tr><tr><td style="font-weight:bold;vertical-align:top;">flash</td><td style="vertical-align:top;">:</td><td><div></div></td></tr><tr><td style="font-weight:bold;vertical-align:top;">form_label_separator</td><td style="vertical-align:top;">:</td><td><div></div></td></tr><tr><td style="font-weight:bold;vertical-align:top;">formstyle</td><td style="vertical-align:top;">:</td><td><div>bootstrap3_inline</div></td></tr><tr><td style="font-weight:bold;vertical-align:top;">generic_patterns</td><td style="vertical-align:top;">:</td><td><div><table><tr><td><div>*</div></td></tr></table></div></td></tr><tr><td style="font-weight:bold;vertical-align:top;">headers</td><td style="vertical-align:top;">:</td><td><div><table><tr><td style="font-weight:bold;vertical-align:top;">X-Powered-By</td><td style="vertical-align:top;">:</td><td><div>web2py</div></td></tr></table></div></td></tr><tr><td style="font-weight:bold;vertical-align:top;">menu</td><td style="vertical-align:top;">:</td><td><div><table></table></div></td></tr><tr><td style="font-weight:bold;vertical-align:top;">meta</td><td style="vertical-align:top;">:</td><td><div><table></table></div></td></tr><tr><td style="font-weight:bold;vertical-align:top;">models_to_run</td><td style="vertical-align:top;">:</td><td><div><table><tr><td><div>^\\w+\\.py$</div></td></tr><tr><td><div>^appadmin/\\w+\\.py$</div></td></tr><tr><td><div>^appadmin/hooks/\\w+\\.py$</div></td></tr></table></div></td></tr><tr><td style="font-weight:bold;vertical-align:top;">postprocessing</td><td style="vertical-align:top;">:</td><td><div><table></table></div></td></tr><tr><td style="font-weight:bold;vertical-align:top;">session_client</td><td style="vertical-align:top;">:</td><td><div>127.0.0.1</div></td></tr><tr><td style="font-weight:bold;vertical-align:top;">session_cookie_compression_level</td><td style="vertical-align:top;">:</td><td><div>None</div></td></tr><tr><td style="font-weight:bold;vertical-align:top;">session_cookie_expires</td><td style="vertical-align:top;">:</td><td><div>None</div></td></tr><tr><td style="font-weight:bold;vertical-align:top;">session_cookie_key</td><td style="vertical-align:top;">:</td><td><div>None</div></td></tr><tr><td style="font-weight:bold;vertical-align:top;">session_data_name</td><td style="vertical-align:top;">:</td><td><div>session_data_pydoctor</div></td></tr><tr><td style="font-weight:bold;vertical-align:top;">session_file</td><td style="vertical-align:top;">:</td><td><div>&lt;open file &#x27;/home/marian/web2py/applications/PyDoctor/sessions/0ff/0e6/127.0.0.1-fbc9da0c-a356-4930-9b1a-ea5f66f8c91a&#x27;, mode &#x27;rb+&#x27; at 0x7f9fd4c57270&gt;</div></td></tr><tr><td style="font-weight:bold;vertical-align:top;">session_filename</td><td style="vertical-align:top;">:</td><td><div>/home/marian/web2py/applications/PyDoctor/sessions/127.0.0.1-fbc9da0c-a356-4930-9b1a-ea5f66f8c91a</div></td></tr><tr><td style="font-weight:bold;vertical-align:top;">session_hash</td><td style="vertical-align:top;">:</td><td><div>8470c5865048354ccb961f73f91e5eef</div></td></tr><tr><td style="font-weight:bold;vertical-align:top;">session_id</td><td style="vertical-align:top;">:</td><td><div>127.0.0.1-fbc9da0c-a356-4930-9b1a-ea5f66f8c91a</div></td></tr><tr><td style="font-weight:bold;vertical-align:top;">session_id_name</td><td style="vertical-align:top;">:</td><td><div>session_id_pydoctor</div></td></tr><tr><td style="font-weight:bold;vertical-align:top;">session_locked</td><td style="vertical-align:top;">:</td><td><div>True</div></td></tr><tr><td style="font-weight:bold;vertical-align:top;">session_masterapp</td><td style="vertical-align:top;">:</td><td><div>PyDoctor</div></td></tr><tr><td style="font-weight:bold;vertical-align:top;">session_new</td><td style="vertical-align:top;">:</td><td><div>False</div></td></tr><tr><td style="font-weight:bold;vertical-align:top;">session_storage_type</td><td style="vertical-align:top;">:</td><td><div>file</div></td></tr><tr><td style="font-weight:bold;vertical-align:top;">status</td><td style="vertical-align:top;">:</td><td><div>200</div></td></tr><tr><td style="font-weight:bold;vertical-align:top;">view</td><td style="vertical-align:top;">:</td><td><div>appadmin/hooks.html</div></td></tr></table></div>'
tRp220
sS'locals'
p221
(dp222
S'sort'
p223
S'False'
p224
sS'orderby'
p225
S'None'
p226
sS'cache'
p227
S'None'
p228
sS'multiple'
p229
g224
sS'dbset'
p230
S'<DAL uri="sqlite://storage_new.sqlite">'
p231
sS'auto_add'
p232
g224
sS'distinct'
p233
S'None'
p234
sS'self'
p235
S'<gluon.validators.IS_IN_DB object>'
p236
sS'error_message'
p237
S"'Value not in database'"
p238
sS'delimiter'
p239
S'None'
p240
sS'_and'
p241
S'None'
p242
sS'ktable'
p243
S"'persona'"
p244
sS'field'
p245
S'<pydal.objects.Field object>'
p246
sS'zero'
p247
S"''"
p248
sS'left'
p249
S'None'
p250
sS'Table'
p251
S"<class 'pydal.objects.Table'>"
p252
sS'label'
p253
S'<gluon.html.XML object>'
p254
sS'groupby'
p255
S'None'
p256
sS'kfield'
p257
S"'id'"
p258
sssS'traceback'
p259
S'Traceback (most recent call last):\n  File "/home/marian/web2py/gluon/restricted.py", line 227, in restricted\n    exec ccode in environment\n  File "/home/marian/web2py/applications/PyDoctor/models/db_pydoctor.py", line 152, in <module>\n    auth.signature)\n  File "/home/marian/web2py/gluon/packages/dal/pydal/base.py", line 834, in define_table\n    table = self.lazy_define_table(tablename,*fields,**args)\n  File "/home/marian/web2py/gluon/packages/dal/pydal/base.py", line 858, in lazy_define_table\n    field.requires = auto_validators(field)\n  File "/home/marian/web2py/gluon/packages/dal/pydal/helpers/methods.py", line 238, in auto_validators\n    return db.validators_method(field)\n  File "/home/marian/web2py/gluon/dal.py", line 54, in _default_validators\n    referenced._format)\n  File "/home/marian/web2py/gluon/validators.py", line 547, in __init__\n    raise NotImplementedError\nNotImplementedError\n'
p260
s.