(dp1
S'output'
p2
S"<type 'exceptions.TypeError'> cannot concatenate 'str' and 'B' objects"
p3
sS'layer'
p4
S'/home/marian/web2py/applications/PyDoctor/views/default/admin_expedientes.html'
p5
sS'code'
p6
S'response.write(\'<!DOCTYPE html>\\n<!--[if (gt IE 9)|!(IE)]><!--> <html class="no-js" lang="\', escape=False)\nresponse.write(T.accepted_language or \'en\')\nresponse.write(\'"> <!--<![endif]-->\\n  <head>\\n    <meta charset="utf-8">\\n    <!-- www.phpied.com/conditional-comments-block-downloads/ -->\\n    <!-- Always force latest IE rendering engine\\n         (even in intranet) & Chrome Frame\\n         Remove this if you use the .htaccess -->\\n    <meta http-equiv="X-UA-Compatible" content="IE=edge\', escape=False)\nresponse.write(not request.is_local and \',chrome=1\' or \'\')\nresponse.write(\'">\\n    <!--  Mobile Viewport Fix\\n          j.mp/mobileviewport & davidbcalhoun.com/2010/viewport-metatag\\n          device-width: Occupy full width of the screen in its current orientation\\n          initial-scale = 1.0 retains dimensions instead of zooming out if page height > device height\\n          user-scalable = yes allows the user to zoom in -->\\n    <meta name="viewport" content="width=device-width, initial-scale=1.0">\\n    <title>\', escape=False)\nresponse.write(response.title or request.application)\nresponse.write(\'</title>\\n    <!-- http://dev.w3.org/html5/markup/meta.name.html -->\\n    <meta name="application-name" content="\', escape=False)\nresponse.write(request.application)\nresponse.write(\'">\\n    <!-- Speaking of Google, don\\\'t forget to set your site up:\\n         http://google.com/webmasters -->\\n    <meta name="google-site-verification" content="">\\n    <!-- include stylesheets -->\\n    <link rel="stylesheet" href="\', escape=False)\nresponse.write(URL(\'static\',\'css/bootstrap.min.css\'))\nresponse.write(\'"/>\\n    <link rel="stylesheet" href="\', escape=False)\nresponse.write(URL(\'static\',\'css/web2py-bootstrap3.css\'))\nresponse.write(\'"/>\\n    <link rel="shortcut icon" href="\', escape=False)\nresponse.write(URL(\'static\',\'images/favicon.ico\'))\nresponse.write(\'" type="image/x-icon">\\n    <link rel="apple-touch-icon" href="\', escape=False)\nresponse.write(URL(\'static\',\'images/favicon.png\'))\nresponse.write(\'">\\n    <!-- All JavaScript at the bottom, except for Modernizr which enables\\n         HTML5 elements & feature detects -->\\n    <script src="\', escape=False)\nresponse.write(URL(\'static\',\'js/modernizr-2.8.3.min.js\'))\nresponse.write(\'"></script>\\n    <script type="text/javascript" src="\', escape=False)\nresponse.write(URL(request.application,\'static\',\'js/ckeditor/ckeditor.js\'))\nresponse.write(\'"></script>\\n      \\n    <!--[if lt IE 9]>\\n        <script src="\', escape=False)\nresponse.write(URL(\'static\',\'js/respond-1.4.2.min.js\'))\nresponse.write(\'"></script>\\n        <![endif]-->\\n    <!-- Favicons -->\\n    \', escape=False)\nresponse.write(\'<script type="text/javascript"><!--\\n    // These variables are used by the web2py_ajax_init function in web2py_ajax.js (which is loaded below).\\n    var w2p_ajax_confirm_message = "\', escape=False)\nresponse.write(T(\'Are you sure you want to delete this object?\'))\nresponse.write(\'";\\n    var w2p_ajax_disable_with_message = "\', escape=False)\nresponse.write(T(\'Working...\'))\nresponse.write(\'";\\n    var w2p_ajax_date_format = "\', escape=False)\nresponse.write(T(\'%Y-%m-%d\'))\nresponse.write(\'";\\n    var w2p_ajax_datetime_format = "\', escape=False)\nresponse.write(T(\'%Y-%m-%d %H:%M:%S\'))\nresponse.write(\'";\\n    var ajax_error_500 = \\\'\', escape=False)\nresponse.write(T.M(\'An error occured, please [[reload %s]] the page\') % URL(args=request.args, vars=request.get_vars))\nresponse.write("\'\\n    //--></script>\\n", escape=False)\nresponse.files.insert(0,URL(\'static\',\'js/jquery.js\'))\nresponse.files.insert(1,URL(\'static\',\'css/calendar.css\'))\nresponse.files.insert(2,URL(\'static\',\'js/calendar.js\'))\nresponse.files.insert(3,URL(\'static\',\'js/web2py.js\'))\nresponse.include_meta()\nresponse.include_files()\nresponse.write(\'\\n\', escape=False)\nresponse.write(\' <!-- this includes jquery.js, calendar.js/.css and web2py.js -->\\n    \', escape=False)\nresponse.write(\'\\n    \', escape=False)\n# using sidebars need to know what sidebar you want to use\nmc0 = \'col-md-12\'\nmc1 = \'col-md-9\'\nmc2 = \'col-md-6\'\nleft_sidebar_enabled = globals().get(\'left_sidebar_enabled\', False)\nright_sidebar_enabled = globals().get(\'right_sidebar_enabled\', False)\nmiddle_column = {0: mc0, 1: mc1, 2: mc2}[\n(left_sidebar_enabled and 1 or 0)+(right_sidebar_enabled and 1 or 0)]\nresponse.write(\'\\n  </head>\\n  <body>\\n    <!--[if lt IE 8]><p class="browserupgrade">You are using an <strong>outdated</strong> browser. Please <a href="http://browsehappy.com/">upgrade your browser</a> to improve your experience.</p><![endif]-->\\n    <div class="w2p_flash alert alert-dismissable">\', escape=False)\nresponse.write(response.flash or \'\')\nresponse.write(\'</div>\\n    <!-- Navbar ======================================= -->\\n    <nav class="navbar navbar-default navbar-fixed-top" role="navigation">\\n      <div class="container-fluid">\\n        <div class="navbar-header">\\n          <button type="button" class="navbar-toggle" data-toggle="collapse" data-target=".navbar-collapse">\\n            <span class="sr-only">Toggle navigation</span>\\n            <span class="icon-bar"></span>\\n            <span class="icon-bar"></span>\\n            <span class="icon-bar"></span>\\n          </button>\\n          \', escape=False)\nresponse.write(response.logo or \'\')\nresponse.write(\'\\n        </div>\\n        <div class="collapse navbar-collapse navbar-ex1-collapse">\\n          <ul class="nav navbar-nav navbar-right">\\n            \', escape=False)\nresponse.write(\'auth\' in globals() and auth.navbar(\'Welcome\',mode=\'dropdown\') or \'\')\nresponse.write(\'\\n          </ul>\\n          \', escape=False)\nif response.menu:\n    response.write(\'\\n          \', escape=False)\n    response.write(MENU(response.menu, _class=\'nav navbar-nav\',li_class=\'dropdown\',ul_class=\'dropdown-menu\'))\n    response.write(\'\\n          \', escape=False)\n    pass\nresponse.write(\'\\n        </div>\\n      </div>\\n    </nav>\\n    <!-- Masthead ===================================== -->    \\n    \', escape=False)\nresponse.write(\'\\n    \', escape=False)\nresponse.write(\'\\n    <!-- Main ========================================= -->\\n    <!-- Begin page content -->\\n    <div class="container-fluid main-container">\\n      \', escape=False)\nif left_sidebar_enabled:\n    response.write(\'\\n        <div class="col-md-3 left-sidebar">\\n            \', escape=False)\n    response.write(\'\\n            <h3>Left Sidebar</h3>\\n            <p></p>\\n            \', escape=False)\n    response.write(\'\\n        </div>\\n      \', escape=False)\n    pass\nresponse.write(\'\\n\\n      <div class="\', escape=False)\nresponse.write(middle_column)\nresponse.write(\'">\\n        \', escape=False)\nresponse.write(\'\\n        \', escape=False)\nresponse.write(\'\\n<h1>Expedientes</h1>\\n\', escape=False)\nif expte:\n    response.write(\'\\n        <div class="col-md-3 well well-lg">\\n            \', escape=False)\n    for link in links:\n        response.write(\'\\n                \', escape=False)\n        response.write(link)\n        response.write(\'\\n            \', escape=False)\n        pass\n    response.write(\'\\n            \', escape=False)\n    response.write(expte)\n    response.write(\'\\n        </div>\\n        <div class="col-md-9">\\n            \', escape=False)\n    response.write(grid)\n    response.write(\'\\n        </div>\\n\\n\', escape=False)\nelse:\n    response.write(\'\\n        \', escape=False)\n    response.write(grid)\n    response.write(\'\\n\', escape=False)\n    pass\nresponse.write("\\n<script>\\n    $(\'#expediente-numero\').width(\'10%\')\\n    $(\'#expediente-caratula\').width(\'35%\')\\n    $(\'#expediente-juzgado_id\').width(\'25%\')\\n    $(\'#movimiento_estado\').width(\'10%\')\\n    $(\'#movimiento_titulo\').width(\'60%\')\\n    $(\'#agenda_vencimiento\').width(\'15%\')\\n    $(\'#agenda_titulo\').width(\'55%\')\\n    $(\'#parte_persona_id\').width(\'45%\')\\n    $(\'#parte_caracter\').width(\'25%\')\\n\\n</script>\\n", escape=False)\nresponse.write(\'\\n        \', escape=False)\nresponse.write(\'\\n      </div>\\n\\n      \', escape=False)\nif right_sidebar_enabled:\n    response.write(\'\\n        <div class="col-md-3">\\n            \', escape=False)\n    response.write(\'\\n            <h3>Right Sidebar</h3>\\n            <p></p>\\n            \', escape=False)\n    response.write(\'\\n        </div>\\n      \', escape=False)\n    pass\nresponse.write(\'\\n\\n    </div>\\n\\n    \', escape=False)\nresponse.write(\' <!-- this is default footer -->      \\n    <footer class="footer">\\n      <div class="container-fluid">\\n        <div class="copyright pull-left">\', escape=False)\nresponse.write(T(\'Copyright\'))\nresponse.write(\' &#169; \', escape=False)\nresponse.write(request.now.year)\nresponse.write(\'</div>\\n          <div id="poweredBy" class="pull-right">\\n            \', escape=False)\nresponse.write(T(\'Powered by\'))\nresponse.write(\'\\n            <a href="http://www.web2py.com/">web2py</a>\\n          </div>\\n      </div>\\n    </footer>\\n    \', escape=False)\nresponse.write(\'\\n    <!-- The javascript =============================== -->\\n    <script src="\', escape=False)\nresponse.write(URL(\'static\',\'js/bootstrap.min.js\'))\nresponse.write(\'"></script>\\n    <script src="\', escape=False)\nresponse.write(URL(\'static\',\'js/web2py-bootstrap3.js\'))\nresponse.write(\'"></script>\\n    \', escape=False)\nresponse.write(\'\\n    \', escape=False)\nif response.google_analytics_id:\n    response.write(\'\\n    <!-- Analytics ==================================== -->\\n    <script src="\', escape=False)\n    response.write(URL(\'static\',\'js/analytics.min.js\'))\n    response.write(\'"></script>\\n    <script type="text/javascript">\\n      analytics.initialize({\\n      \\\'Google Analytics\\\':{trackingId:\\\'\', escape=False)\n    response.write(response.google_analytics_id)\n    response.write("\'}\\n      });\\n    </script>\\n    ", escape=False)\n    pass\nresponse.write(\'\\n    <!-- Share ============================y============ -->\\n    <script src="\', escape=False)\nresponse.write(URL(\'static\',\'js/share.js\',vars=dict(static=URL(\'static\',\'images\'))))\nresponse.write(\'"></script>\\n      \', escape=False)\nif DEVELOPMENT_MENU:\n    response.write(\'\\n      \', escape=False)\n    response.write(BEAUTIFY(response._vars))\n    response.write(\'\\n      \', escape=False)\n    pass\nresponse.write(\'\\n    <!-- This makes autocomplete look like any other form-control wowwww!  -->\\n    <script>\\n        $(".string").addClass("form-control")\\n    </script>\\n  </body>\\n</html>\\n\', escape=False)'
p7
sS'snapshot'
p8
(dp9
S'exception'
p10
(dp11
S'__hash__'
p12
S"<method-wrapper '__hash__' of exceptions.TypeError object>"
p13
sS'__setattr__'
p14
S"<method-wrapper '__setattr__' of exceptions.TypeError object>"
p15
sS'__reduce_ex__'
p16
S'<built-in method __reduce_ex__ of exceptions.TypeError object>'
p17
sS'__getslice__'
p18
S"<method-wrapper '__getslice__' of exceptions.TypeError object>"
p19
sS'__getitem__'
p20
S"<method-wrapper '__getitem__' of exceptions.TypeError object>"
p21
sS'__setstate__'
p22
S'<built-in method __setstate__ of exceptions.TypeError object>'
p23
sS'args'
p24
S'("cannot concatenate \'str\' and \'B\' objects",)'
p25
sS'__reduce__'
p26
S'<built-in method __reduce__ of exceptions.TypeError object>'
p27
sS'__str__'
p28
S"<method-wrapper '__str__' of exceptions.TypeError object>"
p29
sS'__format__'
p30
S'<built-in method __format__ of exceptions.TypeError object>'
p31
sS'__getattribute__'
p32
S"<method-wrapper '__getattribute__' of exceptions.TypeError object>"
p33
sS'__class__'
p34
S"<type 'exceptions.TypeError'>"
p35
sS'__unicode__'
p36
S'<built-in method __unicode__ of exceptions.TypeError object>'
p37
sS'__delattr__'
p38
S"<method-wrapper '__delattr__' of exceptions.TypeError object>"
p39
sS'__subclasshook__'
p40
S'<built-in method __subclasshook__ of type object>'
p41
sS'__repr__'
p42
S"<method-wrapper '__repr__' of exceptions.TypeError object>"
p43
sS'__dict__'
p44
S'{}'
p45
sS'__sizeof__'
p46
S'<built-in method __sizeof__ of exceptions.TypeError object>'
p47
sS'__doc__'
p48
S"'Inappropriate argument type.'"
p49
sS'__init__'
p50
S"<method-wrapper '__init__' of exceptions.TypeError object>"
p51
sS'__new__'
p52
S'<built-in method __new__ of type object>'
p53
ssS'evalue'
p54
S"cannot concatenate 'str' and 'B' objects"
p55
sS'request'
p56
cgluon.html
XML_unpickle
p57
(S's\xc2]\x00\x00<div><table><tr><td style="font-weight:bold;vertical-align:top;">ajax</td><td style="vertical-align:top;">:</td><td><div>False</div></td></tr><tr><td style="font-weight:bold;vertical-align:top;">application</td><td style="vertical-align:top;">:</td><td><div>PyDoctor</div></td></tr><tr><td style="font-weight:bold;vertical-align:top;">args</td><td style="vertical-align:top;">:</td><td><div><table><tr><td><div>expediente</div></td></tr><tr><td><div>agenda.expediente_id</div></td></tr><tr><td><div>1</div></td></tr><tr><td><div>edit</div></td></tr><tr><td><div>agenda</div></td></tr><tr><td><div>1</div></td></tr></table></div></td></tr><tr><td style="font-weight:bold;vertical-align:top;">cid</td><td style="vertical-align:top;">:</td><td><div>None</div></td></tr><tr><td style="font-weight:bold;vertical-align:top;">client</td><td style="vertical-align:top;">:</td><td><div>127.0.0.1</div></td></tr><tr><td style="font-weight:bold;vertical-align:top;">controller</td><td style="vertical-align:top;">:</td><td><div>default</div></td></tr><tr><td style="font-weight:bold;vertical-align:top;">cookies</td><td style="vertical-align:top;">:</td><td><div><table><tr><td style="font-weight:bold;vertical-align:top;">session_id_admin</td><td style="vertical-align:top;">:</td><td><div>127.0.0.1-2a4b7f5e-d835-4d83-86c6-914407c2d4ee<table><tr><td style="font-weight:bold;vertical-align:top;">comment</td><td style="vertical-align:top;">:</td><td><div></div></td></tr><tr><td style="font-weight:bold;vertical-align:top;">domain</td><td style="vertical-align:top;">:</td><td><div></div></td></tr><tr><td style="font-weight:bold;vertical-align:top;">expires</td><td style="vertical-align:top;">:</td><td><div></div></td></tr><tr><td style="font-weight:bold;vertical-align:top;">httponly</td><td style="vertical-align:top;">:</td><td><div></div></td></tr><tr><td style="font-weight:bold;vertical-align:top;">max-age</td><td style="vertical-align:top;">:</td><td><div></div></td></tr><tr><td style="font-weight:bold;vertical-align:top;">path</td><td style="vertical-align:top;">:</td><td><div></div></td></tr><tr><td style="font-weight:bold;vertical-align:top;">secure</td><td style="vertical-align:top;">:</td><td><div></div></td></tr><tr><td style="font-weight:bold;vertical-align:top;">version</td><td style="vertical-align:top;">:</td><td><div></div></td></tr></table></div></td></tr><tr><td style="font-weight:bold;vertical-align:top;">session_id_pydoctor</td><td style="vertical-align:top;">:</td><td><div>127.0.0.1-fbc9da0c-a356-4930-9b1a-ea5f66f8c91a<table><tr><td style="font-weight:bold;vertical-align:top;">comment</td><td style="vertical-align:top;">:</td><td><div></div></td></tr><tr><td style="font-weight:bold;vertical-align:top;">domain</td><td style="vertical-align:top;">:</td><td><div></div></td></tr><tr><td style="font-weight:bold;vertical-align:top;">expires</td><td style="vertical-align:top;">:</td><td><div></div></td></tr><tr><td style="font-weight:bold;vertical-align:top;">httponly</td><td style="vertical-align:top;">:</td><td><div></div></td></tr><tr><td style="font-weight:bold;vertical-align:top;">max-age</td><td style="vertical-align:top;">:</td><td><div></div></td></tr><tr><td style="font-weight:bold;vertical-align:top;">path</td><td style="vertical-align:top;">:</td><td><div></div></td></tr><tr><td style="font-weight:bold;vertical-align:top;">secure</td><td style="vertical-align:top;">:</td><td><div></div></td></tr><tr><td style="font-weight:bold;vertical-align:top;">version</td><td style="vertical-align:top;">:</td><td><div></div></td></tr></table></div></td></tr><tr><td style="font-weight:bold;vertical-align:top;">session_id_welcome</td><td style="vertical-align:top;">:</td><td><div>127.0.0.1-28d0de20-c662-49ad-a209-1fc7b4ad606a<table><tr><td style="font-weight:bold;vertical-align:top;">comment</td><td style="vertical-align:top;">:</td><td><div></div></td></tr><tr><td style="font-weight:bold;vertical-align:top;">domain</td><td style="vertical-align:top;">:</td><td><div></div></td></tr><tr><td style="font-weight:bold;vertical-align:top;">expires</td><td style="vertical-align:top;">:</td><td><div></div></td></tr><tr><td style="font-weight:bold;vertical-align:top;">httponly</td><td style="vertical-align:top;">:</td><td><div></div></td></tr><tr><td style="font-weight:bold;vertical-align:top;">max-age</td><td style="vertical-align:top;">:</td><td><div></div></td></tr><tr><td style="font-weight:bold;vertical-align:top;">path</td><td style="vertical-align:top;">:</td><td><div></div></td></tr><tr><td style="font-weight:bold;vertical-align:top;">secure</td><td style="vertical-align:top;">:</td><td><div></div></td></tr><tr><td style="font-weight:bold;vertical-align:top;">version</td><td style="vertical-align:top;">:</td><td><div></div></td></tr></table></div></td></tr></table></div></td></tr><tr><td style="font-weight:bold;vertical-align:top;">env</td><td style="vertical-align:top;">:</td><td><div><table><tr><td style="font-weight:bold;vertical-align:top;">HTTP_ACCEPT</td><td style="vertical-align:top;">:</td><td><div>text/html,application/xhtml+xml,application/xml;q=0.9,*/*;q=0.8</div></td></tr><tr><td style="font-weight:bold;vertical-align:top;">HTTP_ACCEPT_ENCODING</td><td style="vertical-align:top;">:</td><td><div>gzip, deflate</div></td></tr><tr><td style="font-weight:bold;vertical-align:top;">HTTP_ACCEPT_LANGUAGE</td><td style="vertical-align:top;">:</td><td><div>en-US,en;q=0.5</div></td></tr><tr><td style="font-weight:bold;vertical-align:top;">HTTP_CONNECTION</td><td style="vertical-align:top;">:</td><td><div>keep-alive</div></td></tr><tr><td style="font-weight:bold;vertical-align:top;">HTTP_COOKIE</td><td style="vertical-align:top;">:</td><td><div>session_id_welcome=127.0.0.1-28d0de20-c662-49ad-a209-1fc7b4ad606a; session_id_admin=127.0.0.1-2a4b7f5e-d835-4d83-86c6-914407c2d4ee; session_id_pydoctor=127.0.0.1-fbc9da0c-a356-4930-9b1a-ea5f66f8c91a</div></td></tr><tr><td style="font-weight:bold;vertical-align:top;">HTTP_HOST</td><td style="vertical-align:top;">:</td><td><div>127.0.0.1:8000</div></td></tr><tr><td style="font-weight:bold;vertical-align:top;">HTTP_REFERER</td><td style="vertical-align:top;">:</td><td><div>http://127.0.0.1:8000/PyDoctor/default/admin_expedientes/expediente/agenda.expediente_id/1?_signature=91077c4f2e3eff51a8360e47479db9de6d8a6e3f</div></td></tr><tr><td style="font-weight:bold;vertical-align:top;">HTTP_USER_AGENT</td><td style="vertical-align:top;">:</td><td><div>Mozilla/5.0 (X11; Ubuntu; Linux x86_64; rv:44.0) Gecko/20100101 Firefox/44.0</div></td></tr><tr><td style="font-weight:bold;vertical-align:top;">PATH_INFO</td><td style="vertical-align:top;">:</td><td><div>/PyDoctor/default/admin_expedientes/expediente/agenda.expediente_id/1/edit/agenda/1</div></td></tr><tr><td style="font-weight:bold;vertical-align:top;">QUERY_STRING</td><td style="vertical-align:top;">:</td><td><div>_signature=c3cf9d9da14198f3aeeed9f4376613d236af12ab</div></td></tr><tr><td style="font-weight:bold;vertical-align:top;">REMOTE_ADDR</td><td style="vertical-align:top;">:</td><td><div>127.0.0.1</div></td></tr><tr><td style="font-weight:bold;vertical-align:top;">REMOTE_PORT</td><td style="vertical-align:top;">:</td><td><div>52964</div></td></tr><tr><td style="font-weight:bold;vertical-align:top;">REQUEST_METHOD</td><td style="vertical-align:top;">:</td><td><div>GET</div></td></tr><tr><td style="font-weight:bold;vertical-align:top;">SCRIPT_NAME</td><td style="vertical-align:top;">:</td><td><div></div></td></tr><tr><td style="font-weight:bold;vertical-align:top;">SERVER_NAME</td><td style="vertical-align:top;">:</td><td><div>marian-GA-MA770T-UD3</div></td></tr><tr><td style="font-weight:bold;vertical-align:top;">SERVER_PORT</td><td style="vertical-align:top;">:</td><td><div>8000</div></td></tr><tr><td style="font-weight:bold;vertical-align:top;">SERVER_PROTOCOL</td><td style="vertical-align:top;">:</td><td><div>HTTP/1.1</div></td></tr><tr><td style="font-weight:bold;vertical-align:top;">SERVER_SOFTWARE</td><td style="vertical-align:top;">:</td><td><div>Rocket 1.2.6</div></td></tr><tr><td style="font-weight:bold;vertical-align:top;">app_folders</td><td style="vertical-align:top;">:</td><td><div>set([&#x27;/home/marian/web2py/applications/welcome/&#x27;, &#x27;/home/marian/web2py/applications/PyDoctor/&#x27;, &#x27;/home/marian/web2py/applications/admin/&#x27;])</div></td></tr><tr><td style="font-weight:bold;vertical-align:top;">applications_parent</td><td style="vertical-align:top;">:</td><td><div>/home/marian/web2py</div></td></tr><tr><td style="font-weight:bold;vertical-align:top;">cmd_args</td><td style="vertical-align:top;">:</td><td><div><table></table></div></td></tr><tr><td style="font-weight:bold;vertical-align:top;">cmd_options</td><td style="vertical-align:top;">:</td><td><div>&lt;Values at 0x7fa00fb1ad40: {&#x27;verbose&#x27;: False, &#x27;ip&#x27;: &#x27;127.0.0.1&#x27;, &#x27;debuglevel&#x27;: 30, &#x27;with_scheduler&#x27;: False, &#x27;ips&#x27;: [&#x27;127.0.1.1&#x27;], &#x27;shutdown_timeout&#x27;: 5, &#x27;taskbar&#x27;: False, &#x27;with_coverage&#x27;: False, &#x27;scheduler_groups&#x27;: None, &#x27;port&#x27;: 8000, &#x27;maxthreads&#x27;: None, &#x27;softcron&#x27;: False, &#x27;server_name&#x27;: &#x27;marian-GA-MA770T-UD3&#x27;, &#x27;bpython&#x27;: False, &#x27;nogui&#x27;: False, &#x27;pid_filename&#x27;: &#x27;httpserver.pid&#x27;, &#x27;print_errors&#x27;: False, &#x27;extcron&#x27;: False, &#x27;runcron&#x27;: False, &#x27;run_system_tests&#x27;: False, &#x27;test&#x27;: None, &#x27;folder&#x27;: &#x27;/home/marian/web2py&#x27;, &#x27;config&#x27;: &#x27;&#x27;, &#x27;minthreads&#x27;: None, &#x27;shell&#x27;: None, &#x27;run&#x27;: &#x27;&#x27;, &#x27;log_filename&#x27;: &#x27;httpserver.log&#x27;, &#x27;profiler_dir&#x27;: None, &#x27;args&#x27;: [&#x27;&#x27;], &#x27;socket_timeout&#x27;: 5, &#x27;ssl_ca_certificate&#x27;: None, &#x27;scheduler&#x27;: None, &#x27;interfaces&#x27;: None, &#x27;ssl_private_key&#x27;: &#x27;&#x27;, &#x27;gae&#x27;: None, &#x27;password&#x27;: &#x27;&lt;ask&gt;&#x27;, &#x27;request_queue_size&#x27;: 5, &#x27;ssl_certificate&#x27;: &#x27;&#x27;, &#x27;cronjob&#x27;: False, &#x27;numthreads&#x27;: None, &#x27;quiet&#x27;: False, &#x27;import_models&#x27;: False, &#x27;timeout&#x27;: 10, &#x27;plain&#x27;: False, &#x27;nobanner&#x27;: False}&gt;</div></td></tr><tr><td style="font-weight:bold;vertical-align:top;">db_sessions</td><td style="vertical-align:top;">:</td><td><div>set([])</div></td></tr><tr><td style="font-weight:bold;vertical-align:top;">debugging</td><td style="vertical-align:top;">:</td><td><div>True</div></td></tr><tr><td style="font-weight:bold;vertical-align:top;">gluon_parent</td><td style="vertical-align:top;">:</td><td><div>/home/marian/web2py</div></td></tr><tr><td style="font-weight:bold;vertical-align:top;">http_accept</td><td style="vertical-align:top;">:</td><td><div>text/html,application/xhtml+xml,application/xml;q=0.9,*/*;q=0.8</div></td></tr><tr><td style="font-weight:bold;vertical-align:top;">http_accept_encoding</td><td style="vertical-align:top;">:</td><td><div>gzip, deflate</div></td></tr><tr><td style="font-weight:bold;vertical-align:top;">http_accept_language</td><td style="vertical-align:top;">:</td><td><div>en-US,en;q=0.5</div></td></tr><tr><td style="font-weight:bold;vertical-align:top;">http_connection</td><td style="vertical-align:top;">:</td><td><div>keep-alive</div></td></tr><tr><td style="font-weight:bold;vertical-align:top;">http_cookie</td><td style="vertical-align:top;">:</td><td><div>session_id_welcome=127.0.0.1-28d0de20-c662-49ad-a209-1fc7b4ad606a; session_id_admin=127.0.0.1-2a4b7f5e-d835-4d83-86c6-914407c2d4ee; session_id_pydoctor=127.0.0.1-fbc9da0c-a356-4930-9b1a-ea5f66f8c91a</div></td></tr><tr><td style="font-weight:bold;vertical-align:top;">http_host</td><td style="vertical-align:top;">:</td><td><div>127.0.0.1:8000</div></td></tr><tr><td style="font-weight:bold;vertical-align:top;">http_referer</td><td style="vertical-align:top;">:</td><td><div>http://127.0.0.1:8000/PyDoctor/default/admin_expedientes/expediente/agenda.expediente_id/1?_signature=91077c4f2e3eff51a8360e47479db9de6d8a6e3f</div></td></tr><tr><td style="font-weight:bold;vertical-align:top;">http_user_agent</td><td style="vertical-align:top;">:</td><td><div>Mozilla/5.0 (X11; Ubuntu; Linux x86_64; rv:44.0) Gecko/20100101 Firefox/44.0</div></td></tr><tr><td style="font-weight:bold;vertical-align:top;">is_jython</td><td style="vertical-align:top;">:</td><td><div>False</div></td></tr><tr><td style="font-weight:bold;vertical-align:top;">is_pypy</td><td style="vertical-align:top;">:</td><td><div>False</div></td></tr><tr><td style="font-weight:bold;vertical-align:top;">is_source</td><td style="vertical-align:top;">:</td><td><div>True</div></td></tr><tr><td style="font-weight:bold;vertical-align:top;">local_hosts</td><td style="vertical-align:top;">:</td><td><div><table><tr><td><div>::1</div></td></tr><tr><td><div>127.0.1.1</div></td></tr><tr><td><div>::ffff:127.0.0.1</div></td></tr><tr><td><div>127.0.0.1</div></td></tr><tr><td><div>marian-GA-MA770T-UD3</div></td></tr></table></div></td></tr><tr><td style="font-weight:bold;vertical-align:top;">path_info</td><td style="vertical-align:top;">:</td><td><div>/PyDoctor/default/admin_expedientes/expediente/agenda.expediente_id/1/edit/agenda/1</div></td></tr><tr><td style="font-weight:bold;vertical-align:top;">query_string</td><td style="vertical-align:top;">:</td><td><div>_signature=c3cf9d9da14198f3aeeed9f4376613d236af12ab</div></td></tr><tr><td style="font-weight:bold;vertical-align:top;">remote_addr</td><td style="vertical-align:top;">:</td><td><div>127.0.0.1</div></td></tr><tr><td style="font-weight:bold;vertical-align:top;">remote_port</td><td style="vertical-align:top;">:</td><td><div>52964</div></td></tr><tr><td style="font-weight:bold;vertical-align:top;">request_method</td><td style="vertical-align:top;">:</td><td><div>GET</div></td></tr><tr><td style="font-weight:bold;vertical-align:top;">request_uri</td><td style="vertical-align:top;">:</td><td><div>/PyDoctor/default/admin_expedientes/expediente/agenda.expediente_id/1/edit/agenda/1?_signature=c3cf9d9da14198f3aeeed9f4376613d236af12ab</div></td></tr><tr><td style="font-weight:bold;vertical-align:top;">script_name</td><td style="vertical-align:top;">:</td><td><div></div></td></tr><tr><td style="font-weight:bold;vertical-align:top;">server_name</td><td style="vertical-align:top;">:</td><td><div>marian-GA-MA770T-UD3</div></td></tr><tr><td style="font-weight:bold;vertical-align:top;">server_port</td><td style="vertical-align:top;">:</td><td><div>8000</div></td></tr><tr><td style="font-weight:bold;vertical-align:top;">server_protocol</td><td style="vertical-align:top;">:</td><td><div>HTTP/1.1</div></td></tr><tr><td style="font-weight:bold;vertical-align:top;">server_software</td><td style="vertical-align:top;">:</td><td><div>Rocket 1.2.6</div></td></tr><tr><td style="font-weight:bold;vertical-align:top;">web2py_path</td><td style="vertical-align:top;">:</td><td><div>/home/marian/web2py</div></td></tr><tr><td style="font-weight:bold;vertical-align:top;">web2py_version</td><td style="vertical-align:top;">:</td><td><div>2.13.3-stable+timestamp.2015.12.24.08.08.22</div></td></tr><tr><td style="font-weight:bold;vertical-align:top;">wsgi.errors</td><td style="vertical-align:top;">:</td><td><div>&lt;open file &#x27;&lt;stderr&gt;&#x27;, mode &#x27;w&#x27; at 0x7fa016b571e0&gt;</div></td></tr><tr><td style="font-weight:bold;vertical-align:top;">wsgi.file_wrapper</td><td style="vertical-align:top;">:</td><td><div>&lt;class wsgiref.util.FileWrapper at 0x7fa00fb48390&gt;</div></td></tr><tr><td style="font-weight:bold;vertical-align:top;">wsgi.input</td><td style="vertical-align:top;">:</td><td><div>&lt;socket._fileobject object at 0x7f9fd4d87ad0&gt;</div></td></tr><tr><td style="font-weight:bold;vertical-align:top;">wsgi.multiprocess</td><td style="vertical-align:top;">:</td><td><div>False</div></td></tr><tr><td style="font-weight:bold;vertical-align:top;">wsgi.multithread</td><td style="vertical-align:top;">:</td><td><div>True</div></td></tr><tr><td style="font-weight:bold;vertical-align:top;">wsgi.run_once</td><td style="vertical-align:top;">:</td><td><div>False</div></td></tr><tr><td style="font-weight:bold;vertical-align:top;">wsgi.url_scheme</td><td style="vertical-align:top;">:</td><td><div>http</div></td></tr><tr><td style="font-weight:bold;vertical-align:top;">wsgi.version</td><td style="vertical-align:top;">:</td><td><div><table><tr><td><div>1</div></td></tr><tr><td><div>0</div></td></tr></table></div></td></tr><tr><td style="font-weight:bold;vertical-align:top;">wsgi_errors</td><td style="vertical-align:top;">:</td><td><div>&lt;open file &#x27;&lt;stderr&gt;&#x27;, mode &#x27;w&#x27; at 0x7fa016b571e0&gt;</div></td></tr><tr><td style="font-weight:bold;vertical-align:top;">wsgi_file_wrapper</td><td style="vertical-align:top;">:</td><td><div>&lt;class wsgiref.util.FileWrapper at 0x7fa00fb48390&gt;</div></td></tr><tr><td style="font-weight:bold;vertical-align:top;">wsgi_input</td><td style="vertical-align:top;">:</td><td><div>&lt;socket._fileobject object at 0x7f9fd4d87ad0&gt;</div></td></tr><tr><td style="font-weight:bold;vertical-align:top;">wsgi_multiprocess</td><td style="vertical-align:top;">:</td><td><div>False</div></td></tr><tr><td style="font-weight:bold;vertical-align:top;">wsgi_multithread</td><td style="vertical-align:top;">:</td><td><div>True</div></td></tr><tr><td style="font-weight:bold;vertical-align:top;">wsgi_run_once</td><td style="vertical-align:top;">:</td><td><div>False</div></td></tr><tr><td style="font-weight:bold;vertical-align:top;">wsgi_url_scheme</td><td style="vertical-align:top;">:</td><td><div>http</div></td></tr><tr><td style="font-weight:bold;vertical-align:top;">wsgi_version</td><td style="vertical-align:top;">:</td><td><div><table><tr><td><div>1</div></td></tr><tr><td><div>0</div></td></tr></table></div></td></tr></table></div></td></tr><tr><td style="font-weight:bold;vertical-align:top;">extension</td><td style="vertical-align:top;">:</td><td><div>html</div></td></tr><tr><td style="font-weight:bold;vertical-align:top;">folder</td><td style="vertical-align:top;">:</td><td><div>/home/marian/web2py/applications/PyDoctor/</div></td></tr><tr><td style="font-weight:bold;vertical-align:top;">function</td><td style="vertical-align:top;">:</td><td><div>admin_expedientes</div></td></tr><tr><td style="font-weight:bold;vertical-align:top;">global_settings</td><td style="vertical-align:top;">:</td><td><div><table><tr><td style="font-weight:bold;vertical-align:top;">app_folders</td><td style="vertical-align:top;">:</td><td><div>set([&#x27;/home/marian/web2py/applications/welcome/&#x27;, &#x27;/home/marian/web2py/applications/PyDoctor/&#x27;, &#x27;/home/marian/web2py/applications/admin/&#x27;])</div></td></tr><tr><td style="font-weight:bold;vertical-align:top;">applications_parent</td><td style="vertical-align:top;">:</td><td><div>/home/marian/web2py</div></td></tr><tr><td style="font-weight:bold;vertical-align:top;">cmd_args</td><td style="vertical-align:top;">:</td><td><div><table></table></div></td></tr><tr><td style="font-weight:bold;vertical-align:top;">cmd_options</td><td style="vertical-align:top;">:</td><td><div>&lt;Values at 0x7fa00fb1ad40: {&#x27;verbose&#x27;: False, &#x27;ip&#x27;: &#x27;127.0.0.1&#x27;, &#x27;debuglevel&#x27;: 30, &#x27;with_scheduler&#x27;: False, &#x27;ips&#x27;: [&#x27;127.0.1.1&#x27;], &#x27;shutdown_timeout&#x27;: 5, &#x27;taskbar&#x27;: False, &#x27;with_coverage&#x27;: False, &#x27;scheduler_groups&#x27;: None, &#x27;port&#x27;: 8000, &#x27;maxthreads&#x27;: None, &#x27;softcron&#x27;: False, &#x27;server_name&#x27;: &#x27;marian-GA-MA770T-UD3&#x27;, &#x27;bpython&#x27;: False, &#x27;nogui&#x27;: False, &#x27;pid_filename&#x27;: &#x27;httpserver.pid&#x27;, &#x27;print_errors&#x27;: False, &#x27;extcron&#x27;: False, &#x27;runcron&#x27;: False, &#x27;run_system_tests&#x27;: False, &#x27;test&#x27;: None, &#x27;folder&#x27;: &#x27;/home/marian/web2py&#x27;, &#x27;config&#x27;: &#x27;&#x27;, &#x27;minthreads&#x27;: None, &#x27;shell&#x27;: None, &#x27;run&#x27;: &#x27;&#x27;, &#x27;log_filename&#x27;: &#x27;httpserver.log&#x27;, &#x27;profiler_dir&#x27;: None, &#x27;args&#x27;: [&#x27;&#x27;], &#x27;socket_timeout&#x27;: 5, &#x27;ssl_ca_certificate&#x27;: None, &#x27;scheduler&#x27;: None, &#x27;interfaces&#x27;: None, &#x27;ssl_private_key&#x27;: &#x27;&#x27;, &#x27;gae&#x27;: None, &#x27;password&#x27;: &#x27;&lt;ask&gt;&#x27;, &#x27;request_queue_size&#x27;: 5, &#x27;ssl_certificate&#x27;: &#x27;&#x27;, &#x27;cronjob&#x27;: False, &#x27;numthreads&#x27;: None, &#x27;quiet&#x27;: False, &#x27;import_models&#x27;: False, &#x27;timeout&#x27;: 10, &#x27;plain&#x27;: False, &#x27;nobanner&#x27;: False}&gt;</div></td></tr><tr><td style="font-weight:bold;vertical-align:top;">db_sessions</td><td style="vertical-align:top;">:</td><td><div>set([])</div></td></tr><tr><td style="font-weight:bold;vertical-align:top;">debugging</td><td style="vertical-align:top;">:</td><td><div>True</div></td></tr><tr><td style="font-weight:bold;vertical-align:top;">gluon_parent</td><td style="vertical-align:top;">:</td><td><div>/home/marian/web2py</div></td></tr><tr><td style="font-weight:bold;vertical-align:top;">is_jython</td><td style="vertical-align:top;">:</td><td><div>False</div></td></tr><tr><td style="font-weight:bold;vertical-align:top;">is_pypy</td><td style="vertical-align:top;">:</td><td><div>False</div></td></tr><tr><td style="font-weight:bold;vertical-align:top;">is_source</td><td style="vertical-align:top;">:</td><td><div>True</div></td></tr><tr><td style="font-weight:bold;vertical-align:top;">local_hosts</td><td style="vertical-align:top;">:</td><td><div><table><tr><td><div>::1</div></td></tr><tr><td><div>127.0.1.1</div></td></tr><tr><td><div>::ffff:127.0.0.1</div></td></tr><tr><td><div>127.0.0.1</div></td></tr><tr><td><div>marian-GA-MA770T-UD3</div></td></tr></table></div></td></tr><tr><td style="font-weight:bold;vertical-align:top;">web2py_version</td><td style="vertical-align:top;">:</td><td><div>2.13.3-stable+timestamp.2015.12.24.08.08.22</div></td></tr></table></div></td></tr><tr><td style="font-weight:bold;vertical-align:top;">is_https</td><td style="vertical-align:top;">:</td><td><div>False</div></td></tr><tr><td style="font-weight:bold;vertical-align:top;">is_local</td><td style="vertical-align:top;">:</td><td><div>True</div></td></tr><tr><td style="font-weight:bold;vertical-align:top;">is_restful</td><td style="vertical-align:top;">:</td><td><div>False</div></td></tr><tr><td style="font-weight:bold;vertical-align:top;">is_scheduler</td><td style="vertical-align:top;">:</td><td><div>False</div></td></tr><tr><td style="font-weight:bold;vertical-align:top;">is_shell</td><td style="vertical-align:top;">:</td><td><div>False</div></td></tr><tr><td style="font-weight:bold;vertical-align:top;">now</td><td style="vertical-align:top;">:</td><td><div>datetime.datetime(2016, 2, 3, 23, 19, 57, 812198)</div></td></tr><tr><td style="font-weight:bold;vertical-align:top;">raw_args</td><td style="vertical-align:top;">:</td><td><div>expediente/agenda.expediente_id/1/edit/agenda/1</div></td></tr><tr><td style="font-weight:bold;vertical-align:top;">raw_extension</td><td style="vertical-align:top;">:</td><td><div>None</div></td></tr><tr><td style="font-weight:bold;vertical-align:top;">url</td><td style="vertical-align:top;">:</td><td><div>/PyDoctor/default/admin_expedientes/expediente/agenda.expediente_id/1/edit/agenda/1</div></td></tr><tr><td style="font-weight:bold;vertical-align:top;">utcnow</td><td style="vertical-align:top;">:</td><td><div>datetime.datetime(2016, 2, 4, 2, 19, 57, 812224)</div></td></tr><tr><td style="font-weight:bold;vertical-align:top;">wsgi</td><td style="vertical-align:top;">:</td><td><div>&lt;gluon.main.LazyWSGI object at 0x7f9fcfd9d9d0&gt;</div></td></tr></table></div>'
tRp58
sS'frames'
p59
(lp60
(dp61
S'file'
p62
S'/home/marian/web2py/gluon/restricted.py'
p63
sS'dump'
p64
(dp65
S'environment'
p66
S"{'A': <class 'gluon.html.A'>, 'ANY_OF': <class 'gluon.validators.ANY_OF'>, 'ASSIGNJS': <function ASSIGNJS>, 'AppConfig': <function AppConfig>, 'Auth': <class 'gluon.tools.Auth'>, 'B': <class 'gluon.html.B'>, 'BEAUTIFY': <class 'gluon.html.BEAUTIFY'>, 'BODY': <class 'gluon.html.BODY'>, 'BR': <class 'gluon.html.BR'>, 'BUTTON': <class 'gluon.html.BUTTON'>, ...}"
p67
sS'ccode'
p68
S'<code object <module> at 0x7f9fd40c7f30, file "/...or/views/default/admin_expedientes.html", line 1>'
p69
ssS'lnum'
p70
I227
sS'lines'
p71
(dp72
I224
S'            ccode = code'
p73
sI225
S'        else:'
p74
sI226
S'            ccode = compile2(code, layer)'
p75
sI227
S'        exec ccode in environment'
p76
sI228
S'    except HTTP:'
p77
sI229
S'        raise'
p78
sI230
S'    except RestrictedError:'
p79
sI231
S'        # do not encapsulate (obfuscate) the original RestrictedError'
p80
sI222
S'    try:'
p81
sI223
S'        if isinstance(code, types.CodeType):'
p82
ssS'call'
p83
S'(code=r"response.write(\'<!DOCTYPE html>\\n<!--[if (gt IE ...  </script>\\n  </body>\\n</html>\\n\', escape=False)", environment={\'A\': <class \'gluon.html.A\'>, \'ANY_OF\': <class \'gluon.validators.ANY_OF\'>, \'ASSIGNJS\': <function ASSIGNJS>, \'AppConfig\': <function AppConfig>, \'Auth\': <class \'gluon.tools.Auth\'>, \'B\': <class \'gluon.html.B\'>, \'BEAUTIFY\': <class \'gluon.html.BEAUTIFY\'>, \'BODY\': <class \'gluon.html.BODY\'>, \'BR\': <class \'gluon.html.BR\'>, \'BUTTON\': <class \'gluon.html.BUTTON\'>, ...}, layer=\'/home/marian/web2py/applications/PyDoctor/views/default/admin_expedientes.html\')'
p84
sS'func'
p85
S'restricted'
p86
sa(dp87
g62
S'/home/marian/web2py/applications/PyDoctor/views/default/admin_expedientes.html'
p88
sg64
(dp89
sg70
I87
sg71
(dp90
I96
S"response.write('\\n      </div>\\n\\n      ', escape=False)"
p91
sI97
S'if right_sidebar_enabled:'
p92
sI78
S'    response.write(\'\\n        <div class="col-md-3 well well-lg">\\n            \', escape=False)'
p93
sI79
S'    for link in links:'
p94
sI80
S"        response.write('\\n                ', escape=False)"
p95
sI81
S'        response.write(link)'
p96
sI82
S"        response.write('\\n            ', escape=False)"
p97
sI83
S'        pass'
p98
sI84
S"    response.write('\\n            ', escape=False)"
p99
sI85
S'    response.write(expte)'
p100
sI86
S'    response.write(\'\\n        </div>\\n        <div class="col-md-9">\\n            \', escape=False)'
p101
sI87
S'    response.write(grid)'
p102
sI88
S"    response.write('\\n        </div>\\n\\n', escape=False)"
p103
sI89
S'else:'
p104
sI90
S"    response.write('\\n        ', escape=False)"
p105
sI91
S'    response.write(grid)'
p106
sI92
S"    response.write('\\n', escape=False)"
p107
sI93
S'    pass'
p108
sI94
S'response.write("\\n<script>\\n    $(\'#expediente-numero\').width(\'10%\')\\n    $(\'#expediente-caratula\').width(\'35%\')\\n    $(\'#expediente-juzgado_id\').width(\'25%\')\\n    $(\'#movimiento_estado\').width(\'10%\')\\n    $(\'#movimiento_titulo\').width(\'60%\')\\n    $(\'#agenda_vencimiento\').width(\'15%\')\\n    $(\'#agenda_titulo\').width(\'55%\')\\n    $(\'#parte_persona_id\').width(\'45%\')\\n    $(\'#parte_caracter\').width(\'25%\')\\n\\n</script>\\n", escape=False)'
p109
sI95
S"response.write('\\n        ', escape=False)"
p110
ssg83
S'()'
p111
sg85
S'<module>'
p112
sa(dp113
g62
S'/home/marian/web2py/gluon/globals.py'
p114
sg64
(dp115
S'self.body.write'
p116
S'<built-in method write of cStringIO.StringO object>'
p117
sS'self.body'
p118
S'<cStringIO.StringO object>'
p119
sS'self'
p120
S"<Storage {'body': <cStringIO.StringO object at 0...3b90>, 'view': 'default/admin_expedientes.html'}>"
p121
sS'global xmlescape'
p122
S'<function xmlescape>'
p123
sS'data'
p124
S'<gluon.html.DIV object>'
p125
ssg70
I435
sg71
(dp126
I430
S''
sI431
S'    def write(self, data, escape=True):'
p127
sI432
S'        if not escape:'
p128
sI433
S'            self.body.write(str(data))'
p129
sI434
S'        else:'
p130
sI435
S'            self.body.write(xmlescape(data))'
p131
sI436
S''
sI437
S'    def render(self, *a, **b):'
p132
sI438
S'        from compileapp import run_view_in'
p133
sI439
S'        if len(a) > 2:'
p134
ssg83
S"(self=<Storage {'body': <cStringIO.StringO object at 0...3b90>, 'view': 'default/admin_expedientes.html'}>, data=<gluon.html.DIV object>, escape=True)"
p135
sg85
S'write'
p136
sa(dp137
g62
S'/home/marian/web2py/gluon/html.py'
p138
sg64
(dp139
S'data'
p140
S'<gluon.html.DIV object>'
p141
sS'data.xml'
p142
S'<bound method DIV.xml of <gluon.html.DIV object>>'
p143
ssg70
I130
sg71
(dp144
I128
S'    # first try the xml function'
p145
sI129
S"    if hasattr(data, 'xml') and callable(data.xml):"
p146
sI130
S'        return data.xml()'
p147
sI131
S''
sI132
S'    # otherwise, make it a string'
p148
sI133
S'    if not isinstance(data, (str, unicode)):'
p149
sI134
S'        data = str(data)'
p150
sI125
S'        quote: optional (default False)'
p151
sI126
S'    """'
p152
sI127
S''
ssg83
S'(data=<gluon.html.DIV object>, quote=True)'
p153
sg85
S'xmlescape'
p154
sa(dp155
g62
S'/home/marian/web2py/gluon/html.py'
p156
sg64
(dp157
S'fa'
p158
S'undefined'
p159
sS'self'
p160
S'<gluon.html.DIV object>'
p161
sS'co'
p162
g159
sS'self._xml'
p163
S'<bound method DIV._xml of <gluon.html.DIV object>>'
p164
ssg70
I963
sg71
(dp165
I960
S'        generates the xml for this component.'
p166
sI961
S'        """'
p167
sI962
S''
sI963
S'        (fa, co) = self._xml()'
p168
sI964
S''
sI965
S'        if not self.tag:'
p169
sI966
S'            return co'
p170
sI967
S''
sI958
S'    def xml(self):'
p171
sI959
S'        """'
p172
ssg83
S'(self=<gluon.html.DIV object>)'
p173
sg85
S'xml'
p174
sa(dp175
g62
S'/home/marian/web2py/gluon/html.py'
p176
sg64
(dp177
S'self'
p178
S'<gluon.html.DIV object>'
p179
sS'self.components'
p180
S'[<gluon.html.DIV object>, <gluon.html.DIV object>, <gluon.sqlhtml.SQLFORM object>, <gluon.html.DIV object>]'
p181
ssg70
I954
sg71
(dp182
I949
S"        fa = ''"
p183
sI950
S'        for name, value in attr:'
p184
sI951
S'            fa += \' %s="%s"\' % (name, xmlescape(value, True))'
p185
sI952
S'        # get the xml for the inner components'
p186
sI953
S'        co = join([xmlescape(component) for component in'
p187
sI954
S'                   self.components])'
p188
sI955
S''
sI956
S'        return (fa, co)'
p189
sI957
S''
sI958
S'    def xml(self):'
p190
ssg83
S'(self=<gluon.html.DIV object>)'
p191
sg85
S'_xml'
p192
sa(dp193
g62
S'/home/marian/web2py/gluon/html.py'
p194
sg64
(dp195
S'data'
p196
S'<gluon.sqlhtml.SQLFORM object>'
p197
sS'data.xml'
p198
S'<bound method SQLFORM.xml of <gluon.sqlhtml.SQLFORM object>>'
p199
ssg70
I130
sg71
(dp200
I128
S'    # first try the xml function'
p201
sI129
S"    if hasattr(data, 'xml') and callable(data.xml):"
p202
sI130
S'        return data.xml()'
p203
sI131
S''
sI132
S'    # otherwise, make it a string'
p204
sI133
S'    if not isinstance(data, (str, unicode)):'
p205
sI134
S'        data = str(data)'
p206
sI125
S'        quote: optional (default False)'
p207
sI126
S'    """'
p208
sI127
S''
ssg83
S'(data=<gluon.sqlhtml.SQLFORM object>, quote=True)'
p209
sg85
g154
sa(dp210
g62
S'/home/marian/web2py/gluon/html.py'
p211
sg64
(dp212
S'global DIV'
p213
S"<class 'gluon.html.DIV'>"
p214
sS'DIV.xml'
p215
S'<unbound method DIV.xml>'
p216
sS'newform'
p217
S'<gluon.html.FORM object>'
p218
ssg70
I2187
sg71
(dp219
I2182
S'    def xml(self):'
p220
sI2183
S'        newform = FORM(*self.components, **self.attributes)'
p221
sI2184
S'        hidden_fields = self.hidden_fields()'
p222
sI2185
S'        if hidden_fields.components:'
p223
sI2186
S'            newform.append(hidden_fields)'
p224
sI2187
S'        return DIV.xml(newform)'
p225
sI2188
S''
sI2189
S'    def validate(self, **kwargs):'
p226
sI2190
S'        """'
p227
sI2191
S'        This function validates the form,'
p228
ssg83
S'(self=<gluon.sqlhtml.SQLFORM object>)'
p229
sg85
g174
sa(dp230
g62
S'/home/marian/web2py/gluon/html.py'
p231
sg64
(dp232
S'fa'
p233
g159
sS'self'
p234
S'<gluon.html.FORM object>'
p235
sS'co'
p236
g159
sS'self._xml'
p237
S'<bound method FORM._xml of <gluon.html.FORM object>>'
p238
ssg70
I963
sg71
(dp239
I960
S'        generates the xml for this component.'
p240
sI961
S'        """'
p241
sI962
S''
sI963
S'        (fa, co) = self._xml()'
p242
sI964
S''
sI965
S'        if not self.tag:'
p243
sI966
S'            return co'
p244
sI967
S''
sI958
S'    def xml(self):'
p245
sI959
S'        """'
p246
ssg83
S'(self=<gluon.html.FORM object>)'
p247
sg85
g174
sa(dp248
g62
S'/home/marian/web2py/gluon/html.py'
p249
sg64
(dp250
S'self'
p251
S'<gluon.html.FORM object>'
p252
sS'self.components'
p253
S'[<gluon.html.CAT object>, <gluon.html.DIV object>]'
p254
ssg70
I954
sg71
(dp255
I949
S"        fa = ''"
p256
sI950
S'        for name, value in attr:'
p257
sI951
S'            fa += \' %s="%s"\' % (name, xmlescape(value, True))'
p258
sI952
S'        # get the xml for the inner components'
p259
sI953
S'        co = join([xmlescape(component) for component in'
p260
sI954
S'                   self.components])'
p261
sI955
S''
sI956
S'        return (fa, co)'
p262
sI957
S''
sI958
S'    def xml(self):'
p263
ssg83
S'(self=<gluon.html.FORM object>)'
p264
sg85
g192
sa(dp265
g62
S'/home/marian/web2py/gluon/html.py'
p266
sg64
(dp267
S'data'
p268
S'<gluon.html.CAT object>'
p269
sS'data.xml'
p270
S'<bound method CAT.xml of <gluon.html.CAT object>>'
p271
ssg70
I130
sg71
(dp272
I128
S'    # first try the xml function'
p273
sI129
S"    if hasattr(data, 'xml') and callable(data.xml):"
p274
sI130
S'        return data.xml()'
p275
sI131
S''
sI132
S'    # otherwise, make it a string'
p276
sI133
S'    if not isinstance(data, (str, unicode)):'
p277
sI134
S'        data = str(data)'
p278
sI125
S'        quote: optional (default False)'
p279
sI126
S'    """'
p280
sI127
S''
ssg83
S'(data=<gluon.html.CAT object>, quote=True)'
p281
sg85
g154
sa(dp282
g62
S'/home/marian/web2py/gluon/html.py'
p283
sg64
(dp284
S'fa'
p285
g159
sS'self'
p286
S'<gluon.html.CAT object>'
p287
sS'co'
p288
g159
sS'self._xml'
p289
S'<bound method CAT._xml of <gluon.html.CAT object>>'
p290
ssg70
I963
sg71
(dp291
I960
S'        generates the xml for this component.'
p292
sI961
S'        """'
p293
sI962
S''
sI963
S'        (fa, co) = self._xml()'
p294
sI964
S''
sI965
S'        if not self.tag:'
p295
sI966
S'            return co'
p296
sI967
S''
sI958
S'    def xml(self):'
p297
sI959
S'        """'
p298
ssg83
S'(self=<gluon.html.CAT object>)'
p299
sg85
g174
sa(dp300
g62
S'/home/marian/web2py/gluon/html.py'
p301
sg64
(dp302
S'self'
p303
S'<gluon.html.CAT object>'
p304
sS'self.components'
p305
S'[<gluon.html.DIV object>, <gluon.html.DIV object>, <gluon.html.DIV object>, <gluon.html.DIV object>, <gluon.html.DIV object>, <gluon.html.DIV object>, <gluon.html.DIV object>, <gluon.html.DIV object>]'
p306
ssg70
I954
sg71
(dp307
I949
S"        fa = ''"
p308
sI950
S'        for name, value in attr:'
p309
sI951
S'            fa += \' %s="%s"\' % (name, xmlescape(value, True))'
p310
sI952
S'        # get the xml for the inner components'
p311
sI953
S'        co = join([xmlescape(component) for component in'
p312
sI954
S'                   self.components])'
p313
sI955
S''
sI956
S'        return (fa, co)'
p314
sI957
S''
sI958
S'    def xml(self):'
p315
ssg83
S'(self=<gluon.html.CAT object>)'
p316
sg85
g192
sa(dp317
g62
S'/home/marian/web2py/gluon/html.py'
p318
sg64
(dp319
S'data'
p320
S'<gluon.html.DIV object>'
p321
sS'data.xml'
p322
S'<bound method DIV.xml of <gluon.html.DIV object>>'
p323
ssg70
I130
sg71
(dp324
I128
S'    # first try the xml function'
p325
sI129
S"    if hasattr(data, 'xml') and callable(data.xml):"
p326
sI130
S'        return data.xml()'
p327
sI131
S''
sI132
S'    # otherwise, make it a string'
p328
sI133
S'    if not isinstance(data, (str, unicode)):'
p329
sI134
S'        data = str(data)'
p330
sI125
S'        quote: optional (default False)'
p331
sI126
S'    """'
p332
sI127
S''
ssg83
S'(data=<gluon.html.DIV object>, quote=True)'
p333
sg85
g154
sa(dp334
g62
S'/home/marian/web2py/gluon/html.py'
p335
sg64
(dp336
S'fa'
p337
g159
sS'self'
p338
S'<gluon.html.DIV object>'
p339
sS'co'
p340
g159
sS'self._xml'
p341
S'<bound method DIV._xml of <gluon.html.DIV object>>'
p342
ssg70
I963
sg71
(dp343
I960
S'        generates the xml for this component.'
p344
sI961
S'        """'
p345
sI962
S''
sI963
S'        (fa, co) = self._xml()'
p346
sI964
S''
sI965
S'        if not self.tag:'
p347
sI966
S'            return co'
p348
sI967
S''
sI958
S'    def xml(self):'
p349
sI959
S'        """'
p350
ssg83
S'(self=<gluon.html.DIV object>)'
p351
sg85
g174
sa(dp352
g62
S'/home/marian/web2py/gluon/html.py'
p353
sg64
(dp354
S'self'
p355
S'<gluon.html.DIV object>'
p356
sS'self.components'
p357
S'[<gluon.html.LABEL object>, <gluon.html.DIV object>]'
p358
ssg70
I954
sg71
(dp359
I949
S"        fa = ''"
p360
sI950
S'        for name, value in attr:'
p361
sI951
S'            fa += \' %s="%s"\' % (name, xmlescape(value, True))'
p362
sI952
S'        # get the xml for the inner components'
p363
sI953
S'        co = join([xmlescape(component) for component in'
p364
sI954
S'                   self.components])'
p365
sI955
S''
sI956
S'        return (fa, co)'
p366
sI957
S''
sI958
S'    def xml(self):'
p367
ssg83
S'(self=<gluon.html.DIV object>)'
p368
sg85
g192
sa(dp369
g62
S'/home/marian/web2py/gluon/html.py'
p370
sg64
(dp371
S'data'
p372
S'<gluon.html.DIV object>'
p373
sS'data.xml'
p374
S'<bound method DIV.xml of <gluon.html.DIV object>>'
p375
ssg70
I130
sg71
(dp376
I128
S'    # first try the xml function'
p377
sI129
S"    if hasattr(data, 'xml') and callable(data.xml):"
p378
sI130
S'        return data.xml()'
p379
sI131
S''
sI132
S'    # otherwise, make it a string'
p380
sI133
S'    if not isinstance(data, (str, unicode)):'
p381
sI134
S'        data = str(data)'
p382
sI125
S'        quote: optional (default False)'
p383
sI126
S'    """'
p384
sI127
S''
ssg83
S'(data=<gluon.html.DIV object>, quote=True)'
p385
sg85
g154
sa(dp386
g62
S'/home/marian/web2py/gluon/html.py'
p387
sg64
(dp388
S'fa'
p389
g159
sS'self'
p390
S'<gluon.html.DIV object>'
p391
sS'co'
p392
g159
sS'self._xml'
p393
S'<bound method DIV._xml of <gluon.html.DIV object>>'
p394
ssg70
I963
sg71
(dp395
I960
S'        generates the xml for this component.'
p396
sI961
S'        """'
p397
sI962
S''
sI963
S'        (fa, co) = self._xml()'
p398
sI964
S''
sI965
S'        if not self.tag:'
p399
sI966
S'            return co'
p400
sI967
S''
sI958
S'    def xml(self):'
p401
sI959
S'        """'
p402
ssg83
S'(self=<gluon.html.DIV object>)'
p403
sg85
g174
sa(dp404
g62
S'/home/marian/web2py/gluon/html.py'
p405
sg64
(dp406
S'self'
p407
S'<gluon.html.DIV object>'
p408
sS'self.components'
p409
S'[<gluon.html.SELECT object>, <gluon.html.SPAN object>]'
p410
ssg70
I954
sg71
(dp411
I949
S"        fa = ''"
p412
sI950
S'        for name, value in attr:'
p413
sI951
S'            fa += \' %s="%s"\' % (name, xmlescape(value, True))'
p414
sI952
S'        # get the xml for the inner components'
p415
sI953
S'        co = join([xmlescape(component) for component in'
p416
sI954
S'                   self.components])'
p417
sI955
S''
sI956
S'        return (fa, co)'
p418
sI957
S''
sI958
S'    def xml(self):'
p419
ssg83
S'(self=<gluon.html.DIV object>)'
p420
sg85
g192
sa(dp421
g62
S'/home/marian/web2py/gluon/html.py'
p422
sg64
(dp423
S'data'
p424
S'<gluon.html.SELECT object>'
p425
sS'data.xml'
p426
S'<bound method SELECT.xml of <gluon.html.SELECT object>>'
p427
ssg70
I130
sg71
(dp428
I128
S'    # first try the xml function'
p429
sI129
S"    if hasattr(data, 'xml') and callable(data.xml):"
p430
sI130
S'        return data.xml()'
p431
sI131
S''
sI132
S'    # otherwise, make it a string'
p432
sI133
S'    if not isinstance(data, (str, unicode)):'
p433
sI134
S'        data = str(data)'
p434
sI125
S'        quote: optional (default False)'
p435
sI126
S'    """'
p436
sI127
S''
ssg83
S'(data=<gluon.html.SELECT object>, quote=True)'
p437
sg85
g154
sa(dp438
g62
S'/home/marian/web2py/gluon/html.py'
p439
sg64
(dp440
S'global DIV'
p441
S"<class 'gluon.html.DIV'>"
p442
sS'DIV.xml'
p443
S'<unbound method DIV.xml>'
p444
sS'self'
p445
S'<gluon.html.SELECT object>'
p446
ssg70
I1927
sg71
(dp447
I1922
S'        else:'
p448
sI1923
S"            if self['_class'] and self['_class'].endswith('invalidinput'):"
p449
sI1924
S"                self['_class'] = self['_class'][:-12]"
p450
sI1925
S"                if self['_class'] == '':"
p451
sI1926
S"                    self['_class'] = None"
p452
sI1927
S'            return DIV.xml(self)'
p453
sI1928
S''
sI1929
S''
sI1930
S'class TEXTAREA(INPUT):'
p454
sI1931
S''
ssg83
S'(self=<gluon.html.SELECT object>)'
p455
sg85
g174
sa(dp456
g62
S'/home/marian/web2py/gluon/html.py'
p457
sg64
(dp458
S'fa'
p459
g159
sS'self'
p460
S'<gluon.html.SELECT object>'
p461
sS'co'
p462
g159
sS'self._xml'
p463
S'<bound method SELECT._xml of <gluon.html.SELECT object>>'
p464
ssg70
I963
sg71
(dp465
I960
S'        generates the xml for this component.'
p466
sI961
S'        """'
p467
sI962
S''
sI963
S'        (fa, co) = self._xml()'
p468
sI964
S''
sI965
S'        if not self.tag:'
p469
sI966
S'            return co'
p470
sI967
S''
sI958
S'    def xml(self):'
p471
sI959
S'        """'
p472
ssg83
S'(self=<gluon.html.SELECT object>)'
p473
sg85
g174
sa(dp474
g62
S'/home/marian/web2py/gluon/html.py'
p475
sg64
(dp476
S'self'
p477
S'<gluon.html.SELECT object>'
p478
sS'self.components'
p479
S'[<gluon.html.OPTION object>, <gluon.html.OPTION object>, <gluon.html.OPTION object>]'
p480
ssg70
I954
sg71
(dp481
I949
S"        fa = ''"
p482
sI950
S'        for name, value in attr:'
p483
sI951
S'            fa += \' %s="%s"\' % (name, xmlescape(value, True))'
p484
sI952
S'        # get the xml for the inner components'
p485
sI953
S'        co = join([xmlescape(component) for component in'
p486
sI954
S'                   self.components])'
p487
sI955
S''
sI956
S'        return (fa, co)'
p488
sI957
S''
sI958
S'    def xml(self):'
p489
ssg83
S'(self=<gluon.html.SELECT object>)'
p490
sg85
g192
sa(dp491
g62
S'/home/marian/web2py/gluon/html.py'
p492
sg64
(dp493
S'data'
p494
S'<gluon.html.OPTION object>'
p495
sS'data.xml'
p496
S'<bound method OPTION.xml of <gluon.html.OPTION object>>'
p497
ssg70
I130
sg71
(dp498
I128
S'    # first try the xml function'
p499
sI129
S"    if hasattr(data, 'xml') and callable(data.xml):"
p500
sI130
S'        return data.xml()'
p501
sI131
S''
sI132
S'    # otherwise, make it a string'
p502
sI133
S'    if not isinstance(data, (str, unicode)):'
p503
sI134
S'        data = str(data)'
p504
sI125
S'        quote: optional (default False)'
p505
sI126
S'    """'
p506
sI127
S''
ssg83
S'(data=<gluon.html.OPTION object>, quote=True)'
p507
sg85
g154
sa(dp508
g62
S'/home/marian/web2py/gluon/html.py'
p509
sg64
(dp510
S'fa'
p511
g159
sS'self'
p512
S'<gluon.html.OPTION object>'
p513
sS'co'
p514
g159
sS'self._xml'
p515
S'<bound method OPTION._xml of <gluon.html.OPTION object>>'
p516
ssg70
I963
sg71
(dp517
I960
S'        generates the xml for this component.'
p518
sI961
S'        """'
p519
sI962
S''
sI963
S'        (fa, co) = self._xml()'
p520
sI964
S''
sI965
S'        if not self.tag:'
p521
sI966
S'            return co'
p522
sI967
S''
sI958
S'    def xml(self):'
p523
sI959
S'        """'
p524
ssg83
S'(self=<gluon.html.OPTION object>)'
p525
sg85
g174
sa(dp526
g62
S'/home/marian/web2py/gluon/html.py'
p527
sg64
(dp528
S'self'
p529
S'<gluon.html.OPTION object>'
p530
sS'self.components'
p531
S"[<lazyT '<b>Pendiente</b>'>]"
p532
ssg70
I954
sg71
(dp533
I949
S"        fa = ''"
p534
sI950
S'        for name, value in attr:'
p535
sI951
S'            fa += \' %s="%s"\' % (name, xmlescape(value, True))'
p536
sI952
S'        # get the xml for the inner components'
p537
sI953
S'        co = join([xmlescape(component) for component in'
p538
sI954
S'                   self.components])'
p539
sI955
S''
sI956
S'        return (fa, co)'
p540
sI957
S''
sI958
S'    def xml(self):'
p541
ssg83
S'(self=<gluon.html.OPTION object>)'
p542
sg85
g192
sa(dp543
g62
S'/home/marian/web2py/gluon/html.py'
p544
sg64
(dp545
S'data'
p546
S"<lazyT '<b>Pendiente</b>'>"
p547
sS'data.xml'
p548
S"<bound method lazyT.xml of <lazyT '<b>Pendiente</b>'>>"
p549
ssg70
I130
sg71
(dp550
I128
S'    # first try the xml function'
p551
sI129
S"    if hasattr(data, 'xml') and callable(data.xml):"
p552
sI130
S'        return data.xml()'
p553
sI131
S''
sI132
S'    # otherwise, make it a string'
p554
sI133
S'    if not isinstance(data, (str, unicode)):'
p555
sI134
S'        data = str(data)'
p556
sI125
S'        quote: optional (default False)'
p557
sI126
S'    """'
p558
sI127
S''
ssg83
S"(data=<lazyT '<b>Pendiente</b>'>, quote=True)"
p559
sg85
g154
sa(dp560
g62
S'/home/marian/web2py/gluon/languages.py'
p561
sg64
(dp562
S'builtinstr'
p563
S"<type 'str'>"
p564
sS'self'
p565
S"<lazyT '<b>Pendiente</b>'>"
p566
sS'global escape'
p567
S'<function escape>'
p568
sS'self.M'
p569
S'False'
p570
ssg70
I423
sg71
(dp571
I418
S''
sI419
S'    def __len__(self):'
p572
sI420
S'        return len(str(self))'
p573
sI421
S''
sI422
S'    def xml(self):'
p574
sI423
S'        return str(self) if self.M else escape(str(self))'
p575
sI424
S''
sI425
S'    def encode(self, *a, **b):'
p576
sI426
S'        return str(self).encode(*a, **b)'
p577
sI427
S''
ssg83
S"(self=<lazyT '<b>Pendiente</b>'>)"
p578
sg85
g174
sa(dp579
g62
S'/home/marian/web2py/gluon/languages.py'
p580
sg64
(dp581
S'self.T.translate'
p582
S'<bound method translator.translate of <gluon.languages.translator object>>'
p583
sS'self.s'
p584
g45
sS'self'
p585
S"<lazyT '<b>Pendiente</b>'>"
p586
sS'self.T'
p587
S'<gluon.languages.translator object>'
p588
sS'self.m'
p589
S'<gluon.html.B object>'
p590
ssg70
I383
sg71
(dp591
I384
S''
sI385
S'    def __eq__(self, other):'
p592
sI386
S'        return str(self) == str(other)'
p593
sI387
S''
sI378
S'    def __repr__(self):'
p594
sI379
S'        return "<lazyT %s>" % (repr(Utf8(self.m)), )'
p595
sI380
S''
sI381
S'    def __str__(self):'
p596
sI382
S'        return str(self.T.apply_filter(self.m, self.s, self.f, self.t) if self.M else'
p597
sI383
S'                   self.T.translate(self.m, self.s))'
p598
ssg83
S"(self=<lazyT '<b>Pendiente</b>'>)"
p599
sg85
g28
sa(dp600
g62
S'/home/marian/web2py/gluon/languages.py'
p601
sg64
(dp602
S'self'
p603
S'<gluon.languages.translator object>'
p604
sS'self.get_t'
p605
S'<bound method translator.get_t of <gluon.languages.translator object>>'
p606
sS'message'
p607
S'<gluon.html.B object>'
p608
ssg70
I929
sg71
(dp609
I928
S'        message = get_from_cache(self.cache, message,'
p610
sI929
S'                                 lambda: self.get_t(message))'
p611
sI930
S'        if symbols or symbols == 0 or symbols == "":'
p612
sI931
S'            if isinstance(symbols, dict):'
p613
sI932
S'                symbols.update('
p614
sI933
S'                    (key, str(value).translate(ttab_in))'
p615
sI924
S'    def translate(self, message, symbols):'
p616
sI925
S'        """'
p617
sI926
S'        Gets cached translated message with inserted parameters(symbols)'
p618
sI927
S'        """'
p619
ssg83
S'(self=<gluon.languages.translator object>, message=<gluon.html.B object>, symbols={})'
p620
sg85
S'translate'
p621
sa(dp622
g62
S'/home/marian/web2py/gluon/languages.py'
p623
sg64
(dp624
S'fun'
p625
S'<function <lambda>>'
p626
sS'val'
p627
S'<gluon.html.B object>'
p628
sS'lang_dict.setdefault'
p629
S'<built-in method setdefault of dict object>'
p630
sS'result'
p631
S'None'
p632
sS'lang_dict'
p633
S"{'!=': '!=', '%(nrows)s records found': '%(nrows)s registros encontrados', '%Y-%m-%d': '%d/%m/%Y', '%Y-%m-%d %H:%M:%S': '%d/%m/%Y %H:%M:%S', '+ And': '+ And', '+ Or': '+ Or', '<': '<', '<=': '<=', '=': '=', '>': '>', ...}"
p634
ssg70
I143
sg71
(dp635
I138
S'        lock.release()'
p636
sI139
S'    if result:'
p637
sI140
S'        return result'
p638
sI141
S'    lock.acquire()'
p639
sI142
S'    try:'
p640
sI143
S'        result = lang_dict.setdefault(val, fun())'
p641
sI144
S'    finally:'
p642
sI145
S'        lock.release()'
p643
sI146
S'    return result'
p644
sI147
S''
ssg83
S"(cache=({'!=': '!=', '%(nrows)s records found': '%(nrows)s registros encontrados', '%Y-%m-%d': '%d/%m/%Y', '%Y-%m-%d %H:%M:%S': '%d/%m/%Y %H:%M:%S', '+ And': '+ And', '+ Or': '+ Or', '<': '<', '<=': '<=', '=': '=', '>': '>', ...}, <_RLock owner=None count=0>), val=<gluon.html.B object>, fun=<function <lambda>>)"
p645
sg85
S'get_from_cache'
p646
sa(dp647
g62
S'/home/marian/web2py/gluon/languages.py'
p648
sg64
(dp649
S'self'
p650
S'<gluon.languages.translator object>'
p651
sS'self.get_t'
p652
S'<bound method translator.get_t of <gluon.languages.translator object>>'
p653
sS'message'
p654
S'<gluon.html.B object>'
p655
ssg70
I929
sg71
(dp656
I928
S'        message = get_from_cache(self.cache, message,'
p657
sI929
S'                                 lambda: self.get_t(message))'
p658
sI930
S'        if symbols or symbols == 0 or symbols == "":'
p659
sI931
S'            if isinstance(symbols, dict):'
p660
sI932
S'                symbols.update('
p661
sI933
S'                    (key, str(value).translate(ttab_in))'
p662
sI924
S'    def translate(self, message, symbols):'
p663
sI925
S'        """'
p664
sI926
S'        Gets cached translated message with inserted parameters(symbols)'
p665
sI927
S'        """'
p666
ssg83
S'()'
p667
sg85
S'<lambda>'
p668
sa(dp669
g62
S'/home/marian/web2py/gluon/languages.py'
p670
sg64
(dp671
S'prefix'
p672
S"''"
p673
sS'message'
p674
S'<gluon.html.B object>'
p675
sS'key'
p676
g159
ssg70
I801
sg71
(dp677
I800
S"            prefix = prefix.encode('utf8')"
p678
sI801
S'        key = prefix + message'
p679
sI802
S'        mt = self.t.get(key, None)'
p680
sI803
S'        if mt is not None:'
p681
sI804
S'            return mt'
p682
sI805
S'        # we did not find a translation'
p683
sI796
S'        """'
p684
sI797
S'        if isinstance(message, unicode):'
p685
sI798
S"            message = message.encode('utf8')"
p686
sI799
S'        if isinstance(prefix, unicode):'
p687
ssg83
S"(self=<gluon.languages.translator object>, message=<gluon.html.B object>, prefix='')"
p688
sg85
S'get_t'
p689
sasS'pyver'
p690
S'Python 2.7.10: /usr/bin/python (prefix: /usr)'
p691
sS'session'
p692
g57
(S's\xe4\x08\x00\x00<div><table><tr><td style="font-weight:bold;vertical-align:top;">auth</td><td style="vertical-align:top;">:</td><td><div><table><tr><td style="font-weight:bold;vertical-align:top;">expiration</td><td style="vertical-align:top;">:</td><td><div>3600</div></td></tr><tr><td style="font-weight:bold;vertical-align:top;">hmac_key</td><td style="vertical-align:top;">:</td><td><div>41e4c1eb-c37b-4084-b342-7b0d1a86f3d2</div></td></tr><tr><td style="font-weight:bold;vertical-align:top;">last_visit</td><td style="vertical-align:top;">:</td><td><div>datetime.datetime(2016, 2, 3, 23, 19, 48, 873448)</div></td></tr><tr><td style="font-weight:bold;vertical-align:top;">remember_me</td><td style="vertical-align:top;">:</td><td><div>False</div></td></tr><tr><td style="font-weight:bold;vertical-align:top;">user</td><td style="vertical-align:top;">:</td><td><div><table><tr><td style="font-weight:bold;vertical-align:top;">email</td><td style="vertical-align:top;">:</td><td><div>user2@root.com</div></td></tr><tr><td style="font-weight:bold;vertical-align:top;">first_name</td><td style="vertical-align:top;">:</td><td><div>user2</div></td></tr><tr><td style="font-weight:bold;vertical-align:top;">id</td><td style="vertical-align:top;">:</td><td><div>2L</div></td></tr><tr><td style="font-weight:bold;vertical-align:top;">last_name</td><td style="vertical-align:top;">:</td><td><div>user2</div></td></tr><tr><td style="font-weight:bold;vertical-align:top;">registration_id</td><td style="vertical-align:top;">:</td><td><div></div></td></tr><tr><td style="font-weight:bold;vertical-align:top;">registration_key</td><td style="vertical-align:top;">:</td><td><div></div></td></tr><tr><td style="font-weight:bold;vertical-align:top;">reset_password_key</td><td style="vertical-align:top;">:</td><td><div></div></td></tr></table></div></td></tr><tr><td style="font-weight:bold;vertical-align:top;">user_groups</td><td style="vertical-align:top;">:</td><td><div><table><tr><td style="font-weight:bold;vertical-align:top;">2</td><td style="vertical-align:top;">:</td><td><div>user_2</div></td></tr></table></div></td></tr></table></div></td></tr><tr><td style="font-weight:bold;vertical-align:top;">flash</td><td style="vertical-align:top;">:</td><td><div>None</div></td></tr></table></div>'
tRp693
sS'etype'
p694
S"<type 'exceptions.TypeError'>"
p695
sS'date'
p696
S'Wed Feb  3 23:19:58 2016'
p697
sS'response'
p698
g57
(S's\xe3E\x00\x00<div><table><tr><td style="font-weight:bold;vertical-align:top;">body</td><td style="vertical-align:top;">:</td><td><div>&lt;cStringIO.StringO object at 0x7f9fcfb5e810&gt;</div></td></tr><tr><td style="font-weight:bold;vertical-align:top;">cookies</td><td style="vertical-align:top;">:</td><td><div><table><tr><td style="font-weight:bold;vertical-align:top;">session_id_pydoctor</td><td style="vertical-align:top;">:</td><td><div>127.0.0.1-fbc9da0c-a356-4930-9b1a-ea5f66f8c91a<table><tr><td style="font-weight:bold;vertical-align:top;">comment</td><td style="vertical-align:top;">:</td><td><div></div></td></tr><tr><td style="font-weight:bold;vertical-align:top;">domain</td><td style="vertical-align:top;">:</td><td><div></div></td></tr><tr><td style="font-weight:bold;vertical-align:top;">expires</td><td style="vertical-align:top;">:</td><td><div></div></td></tr><tr><td style="font-weight:bold;vertical-align:top;">httponly</td><td style="vertical-align:top;">:</td><td><div></div></td></tr><tr><td style="font-weight:bold;vertical-align:top;">max-age</td><td style="vertical-align:top;">:</td><td><div></div></td></tr><tr><td style="font-weight:bold;vertical-align:top;">path</td><td style="vertical-align:top;">:</td><td><div>/</div></td></tr><tr><td style="font-weight:bold;vertical-align:top;">secure</td><td style="vertical-align:top;">:</td><td><div></div></td></tr><tr><td style="font-weight:bold;vertical-align:top;">version</td><td style="vertical-align:top;">:</td><td><div></div></td></tr></table></div></td></tr></table></div></td></tr><tr><td style="font-weight:bold;vertical-align:top;">delimiters</td><td style="vertical-align:top;">:</td><td><div><table><tr><td><div>{{</div></td></tr><tr><td><div>}}</div></td></tr></table></div></td></tr><tr><td style="font-weight:bold;vertical-align:top;">files</td><td style="vertical-align:top;">:</td><td><div><table><tr><td><div>/PyDoctor/static/js/jquery.js</div></td></tr><tr><td><div>/PyDoctor/static/css/calendar.css</div></td></tr><tr><td><div>/PyDoctor/static/js/calendar.js</div></td></tr><tr><td><div>/PyDoctor/static/js/web2py.js</div></td></tr></table></div></td></tr><tr><td style="font-weight:bold;vertical-align:top;">flash</td><td style="vertical-align:top;">:</td><td><div></div></td></tr><tr><td style="font-weight:bold;vertical-align:top;">form_label_separator</td><td style="vertical-align:top;">:</td><td><div></div></td></tr><tr><td style="font-weight:bold;vertical-align:top;">formstyle</td><td style="vertical-align:top;">:</td><td><div>bootstrap3_inline</div></td></tr><tr><td style="font-weight:bold;vertical-align:top;">generic_patterns</td><td style="vertical-align:top;">:</td><td><div><table><tr><td><div>*</div></td></tr></table></div></td></tr><tr><td style="font-weight:bold;vertical-align:top;">google_analytics_id</td><td style="vertical-align:top;">:</td><td><div>None</div></td></tr><tr><td style="font-weight:bold;vertical-align:top;">headers</td><td style="vertical-align:top;">:</td><td><div><table><tr><td style="font-weight:bold;vertical-align:top;">X-Powered-By</td><td style="vertical-align:top;">:</td><td><div>web2py</div></td></tr></table></div></td></tr><tr><td style="font-weight:bold;vertical-align:top;">logo</td><td style="vertical-align:top;">:</td><td><div><a class="navbar-brand" id="web2py-logo"><b><span>Py</span>Doctor</b>&trade;&nbsp;</a></div></td></tr><tr><td style="font-weight:bold;vertical-align:top;">menu</td><td style="vertical-align:top;">:</td><td><div><table><tr><td><div><table><tr><td><div>Inicio</div></td></tr><tr><td><div>False</div></td></tr><tr><td><div>/PyDoctor/default/index</div></td></tr><tr><td><div><table></table></div></td></tr></table></div></td></tr><tr><td><div><table><tr><td><div>Expedientes</div></td></tr><tr><td><div>False</div></td></tr><tr><td><div>/PyDoctor/default/admin_expedientes</div></td></tr></table></div></td></tr><tr><td><div><table><tr><td><div>Contactos</div></td></tr><tr><td><div>False</div></td></tr><tr><td><div>/PyDoctor/default/admin_personas</div></td></tr></table></div></td></tr><tr><td><div><table><tr><td><div>Agenda</div></td></tr><tr><td><div>False</div></td></tr><tr><td><div>/PyDoctor/default/agenda</div></td></tr></table></div></td></tr><tr><td><div><table><tr><td><div>Juzgados</div></td></tr><tr><td><div>False</div></td></tr><tr><td><div>/PyDoctor/default/admin_juzgados</div></td></tr></table></div></td></tr><tr><td><div><table><tr><td><div>Tablas</div></td></tr><tr><td><div>False</div></td></tr><tr><td><div>#</div></td></tr><tr><td><div><table><tr><td><div><table><tr><td><div>Instancias</div></td></tr><tr><td><div>False</div></td></tr><tr><td><div>/PyDoctor/default/instancias</div></td></tr></table></div></td></tr><tr><td><div><table><tr><td><div>Fueros</div></td></tr><tr><td><div>False</div></td></tr><tr><td><div>/PyDoctor/default/fueros</div></td></tr></table></div></td></tr></table></div></td></tr></table></div></td></tr><tr><td><div><table><tr><td><div>Mis Sitios</div></td></tr><tr><td><div>False</div></td></tr><tr><td><div>/admin/default/site</div></td></tr></table></div></td></tr><tr><td><div><table><tr><td><div>Esta Aplicaci\xc3\xb3n</div></td></tr><tr><td><div>False</div></td></tr><tr><td><div>#</div></td></tr><tr><td><div><table><tr><td><div><table><tr><td><div>Design</div></td></tr><tr><td><div>False</div></td></tr><tr><td><div>/admin/default/design/PyDoctor</div></td></tr></table></div></td></tr><tr><td><div><li class="divider"></li></div></td></tr><tr><td><div><table><tr><td><div>Controlador</div></td></tr><tr><td><div>False</div></td></tr><tr><td><div>/admin/default/edit/PyDoctor/controllers/default.py</div></td></tr></table></div></td></tr><tr><td><div><table><tr><td><div>Vista</div></td></tr><tr><td><div>False</div></td></tr><tr><td><div>/admin/default/edit/PyDoctor/views/default/admin_expedientes.html</div></td></tr></table></div></td></tr><tr><td><div><table><tr><td><div>Modelo BDD</div></td></tr><tr><td><div>False</div></td></tr><tr><td><div>/admin/default/edit/PyDoctor/models/db.py</div></td></tr></table></div></td></tr><tr><td><div><table><tr><td><div>Modelo "menu"</div></td></tr><tr><td><div>False</div></td></tr><tr><td><div>/admin/default/edit/PyDoctor/models/menu.py</div></td></tr></table></div></td></tr><tr><td><div><table><tr><td><div>Config.ini</div></td></tr><tr><td><div>False</div></td></tr><tr><td><div>/admin/default/edit/PyDoctor/private/appconfig.ini</div></td></tr></table></div></td></tr><tr><td><div><table><tr><td><div>Dise\xc3\xb1o de p\xc3\xa1gina</div></td></tr><tr><td><div>False</div></td></tr><tr><td><div>/admin/default/edit/PyDoctor/views/layout.html</div></td></tr></table></div></td></tr><tr><td><div><table><tr><td><div>Hoja de estilo</div></td></tr><tr><td><div>False</div></td></tr><tr><td><div>/admin/default/edit/PyDoctor/static/css/web2py-bootstrap3.css</div></td></tr></table></div></td></tr><tr><td><div><table><tr><td><div>Base de datos</div></td></tr><tr><td><div>False</div></td></tr><tr><td><div>/PyDoctor/appadmin/index</div></td></tr></table></div></td></tr><tr><td><div><table><tr><td><div>Errores</div></td></tr><tr><td><div>False</div></td></tr><tr><td><div>/admin/default/errors/PyDoctor</div></td></tr></table></div></td></tr><tr><td><div><table><tr><td><div>Acerca de</div></td></tr><tr><td><div>False</div></td></tr><tr><td><div>/admin/default/about/PyDoctor</div></td></tr></table></div></td></tr></table></div></td></tr></table></div></td></tr><tr><td><div><table><tr><td><div>web2py.com</div></td></tr><tr><td><div>False</div></td></tr><tr><td><div>#</div></td></tr><tr><td><div><table><tr><td><div><table><tr><td><div>Descargas</div></td></tr><tr><td><div>False</div></td></tr><tr><td><div>http://www.web2py.com/examples/default/download</div></td></tr></table></div></td></tr><tr><td><div><table><tr><td><div>Soporte</div></td></tr><tr><td><div>False</div></td></tr><tr><td><div>http://www.web2py.com/examples/default/support</div></td></tr></table></div></td></tr><tr><td><div><table><tr><td><div>Demostraci\xc3\xb3n</div></td></tr><tr><td><div>False</div></td></tr><tr><td><div>http://web2py.com/demo_admin</div></td></tr></table></div></td></tr><tr><td><div><table><tr><td><div>Ejemplos R\xc3\xa1pidos</div></td></tr><tr><td><div>False</div></td></tr><tr><td><div>http://web2py.com/examples/default/examples</div></td></tr></table></div></td></tr><tr><td><div><table><tr><td><div>FAQ</div></td></tr><tr><td><div>False</div></td></tr><tr><td><div>http://web2py.com/AlterEgo</div></td></tr></table></div></td></tr><tr><td><div><table><tr><td><div>V\xc3\xaddeos</div></td></tr><tr><td><div>False</div></td></tr><tr><td><div>http://www.web2py.com/examples/default/videos/</div></td></tr></table></div></td></tr><tr><td><div><table><tr><td><div>Aplicaciones Libres</div></td></tr><tr><td><div>False</div></td></tr><tr><td><div>http://web2py.com/appliances</div></td></tr></table></div></td></tr><tr><td><div><table><tr><td><div>Plugins</div></td></tr><tr><td><div>False</div></td></tr><tr><td><div>http://web2py.com/plugins</div></td></tr></table></div></td></tr><tr><td><div><table><tr><td><div>Recetas</div></td></tr><tr><td><div>False</div></td></tr><tr><td><div>http://web2pyslices.com/</div></td></tr></table></div></td></tr></table></div></td></tr></table></div></td></tr><tr><td><div><table><tr><td><div>Documentaci\xc3\xb3n</div></td></tr><tr><td><div>False</div></td></tr><tr><td><div>#</div></td></tr><tr><td><div><table><tr><td><div><table><tr><td><div>Online book</div></td></tr><tr><td><div>False</div></td></tr><tr><td><div>http://www.web2py.com/book</div></td></tr></table></div></td></tr><tr><td><div><li class="divider"></li></div></td></tr><tr><td><div><table><tr><td><div>Prefacio</div></td></tr><tr><td><div>False</div></td></tr><tr><td><div>http://www.web2py.com/book/default/chapter/00</div></td></tr></table></div></td></tr><tr><td><div><table><tr><td><div>Introducci\xc3\xb3n</div></td></tr><tr><td><div>False</div></td></tr><tr><td><div>http://www.web2py.com/book/default/chapter/01</div></td></tr></table></div></td></tr><tr><td><div><table><tr><td><div>Python</div></td></tr><tr><td><div>False</div></td></tr><tr><td><div>http://www.web2py.com/book/default/chapter/02</div></td></tr></table></div></td></tr><tr><td><div><table><tr><td><div>Resumen</div></td></tr><tr><td><div>False</div></td></tr><tr><td><div>http://www.web2py.com/book/default/chapter/03</div></td></tr></table></div></td></tr><tr><td><div><table><tr><td><div>El N\xc3\xbacleo</div></td></tr><tr><td><div>False</div></td></tr><tr><td><div>http://www.web2py.com/book/default/chapter/04</div></td></tr></table></div></td></tr><tr><td><div><table><tr><td><div>Las Vistas</div></td></tr><tr><td><div>False</div></td></tr><tr><td><div>http://www.web2py.com/book/default/chapter/05</div></td></tr></table></div></td></tr><tr><td><div><table><tr><td><div>Base de datos</div></td></tr><tr><td><div>False</div></td></tr><tr><td><div>http://www.web2py.com/book/default/chapter/06</div></td></tr></table></div></td></tr><tr><td><div><table><tr><td><div>Formularios y validadores</div></td></tr><tr><td><div>False</div></td></tr><tr><td><div>http://www.web2py.com/book/default/chapter/07</div></td></tr></table></div></td></tr><tr><td><div><table><tr><td><div>Correo electr\xc3\xb3nico y SMS</div></td></tr><tr><td><div>False</div></td></tr><tr><td><div>http://www.web2py.com/book/default/chapter/08</div></td></tr></table></div></td></tr><tr><td><div><table><tr><td><div>Control de Acceso</div></td></tr><tr><td><div>False</div></td></tr><tr><td><div>http://www.web2py.com/book/default/chapter/09</div></td></tr></table></div></td></tr><tr><td><div><table><tr><td><div>Servicios</div></td></tr><tr><td><div>False</div></td></tr><tr><td><div>http://www.web2py.com/book/default/chapter/10</div></td></tr></table></div></td></tr><tr><td><div><table><tr><td><div>Recetas AJAX</div></td></tr><tr><td><div>False</div></td></tr><tr><td><div>http://www.web2py.com/book/default/chapter/11</div></td></tr></table></div></td></tr><tr><td><div><table><tr><td><div>Componentes y Plugins</div></td></tr><tr><td><div>False</div></td></tr><tr><td><div>http://www.web2py.com/book/default/chapter/12</div></td></tr></table></div></td></tr><tr><td><div><table><tr><td><div>Recetas de despliegue</div></td></tr><tr><td><div>False</div></td></tr><tr><td><div>http://www.web2py.com/book/default/chapter/13</div></td></tr></table></div></td></tr><tr><td><div><table><tr><td><div>Otras Recetas</div></td></tr><tr><td><div>False</div></td></tr><tr><td><div>http://www.web2py.com/book/default/chapter/14</div></td></tr></table></div></td></tr><tr><td><div><table><tr><td><div>Helping web2py</div></td></tr><tr><td><div>False</div></td></tr><tr><td><div>http://www.web2py.com/book/default/chapter/15</div></td></tr></table></div></td></tr><tr><td><div><table><tr><td><div>Buy web2py\'s book</div></td></tr><tr><td><div>False</div></td></tr><tr><td><div>http://stores.lulu.com/web2py</div></td></tr></table></div></td></tr></table></div></td></tr></table></div></td></tr><tr><td><div><table><tr><td><div>Comunidad</div></td></tr><tr><td><div>False</div></td></tr><tr><td><div>None</div></td></tr><tr><td><div><table><tr><td><div><table><tr><td><div>Grupos</div></td></tr><tr><td><div>False</div></td></tr><tr><td><div>http://www.web2py.com/examples/default/usergroups</div></td></tr></table></div></td></tr><tr><td><div><table><tr><td><div>Twitter</div></td></tr><tr><td><div>False</div></td></tr><tr><td><div>http://twitter.com/web2py</div></td></tr></table></div></td></tr><tr><td><div><table><tr><td><div>Chat en vivo</div></td></tr><tr><td><div>False</div></td></tr><tr><td><div>http://webchat.freenode.net/?channels=web2py</div></td></tr></table></div></td></tr></table></div></td></tr></table></div></td></tr></table></div></td></tr><tr><td style="font-weight:bold;vertical-align:top;">meta</td><td style="vertical-align:top;">:</td><td><div><table><tr><td style="font-weight:bold;vertical-align:top;">author</td><td style="vertical-align:top;">:</td><td><div>Your Name &lt;you@example.com&gt;</div></td></tr><tr><td style="font-weight:bold;vertical-align:top;">description</td><td style="vertical-align:top;">:</td><td><div>a cool new app</div></td></tr><tr><td style="font-weight:bold;vertical-align:top;">generator</td><td style="vertical-align:top;">:</td><td><div>Web2py Web Framework</div></td></tr><tr><td style="font-weight:bold;vertical-align:top;">keywords</td><td style="vertical-align:top;">:</td><td><div>web2py, python, framework</div></td></tr></table></div></td></tr><tr><td style="font-weight:bold;vertical-align:top;">models_to_run</td><td style="vertical-align:top;">:</td><td><div><table><tr><td><div>^\\w+\\.py$</div></td></tr><tr><td><div>^default/\\w+\\.py$</div></td></tr><tr><td><div>^default/admin_expedientes/\\w+\\.py$</div></td></tr></table></div></td></tr><tr><td style="font-weight:bold;vertical-align:top;">postprocessing</td><td style="vertical-align:top;">:</td><td><div><table></table></div></td></tr><tr><td style="font-weight:bold;vertical-align:top;">session_client</td><td style="vertical-align:top;">:</td><td><div>127.0.0.1</div></td></tr><tr><td style="font-weight:bold;vertical-align:top;">session_cookie_compression_level</td><td style="vertical-align:top;">:</td><td><div>None</div></td></tr><tr><td style="font-weight:bold;vertical-align:top;">session_cookie_expires</td><td style="vertical-align:top;">:</td><td><div>None</div></td></tr><tr><td style="font-weight:bold;vertical-align:top;">session_cookie_key</td><td style="vertical-align:top;">:</td><td><div>None</div></td></tr><tr><td style="font-weight:bold;vertical-align:top;">session_data_name</td><td style="vertical-align:top;">:</td><td><div>session_data_pydoctor</div></td></tr><tr><td style="font-weight:bold;vertical-align:top;">session_file</td><td style="vertical-align:top;">:</td><td><div>&lt;open file &#x27;/home/marian/web2py/applications/PyDoctor/sessions/0ff/0e6/127.0.0.1-fbc9da0c-a356-4930-9b1a-ea5f66f8c91a&#x27;, mode &#x27;rb+&#x27; at 0x7f9fd5544930&gt;</div></td></tr><tr><td style="font-weight:bold;vertical-align:top;">session_filename</td><td style="vertical-align:top;">:</td><td><div>/home/marian/web2py/applications/PyDoctor/sessions/127.0.0.1-fbc9da0c-a356-4930-9b1a-ea5f66f8c91a</div></td></tr><tr><td style="font-weight:bold;vertical-align:top;">session_hash</td><td style="vertical-align:top;">:</td><td><div>f33f3d6d114f85080995925d42cc5fc5</div></td></tr><tr><td style="font-weight:bold;vertical-align:top;">session_id</td><td style="vertical-align:top;">:</td><td><div>127.0.0.1-fbc9da0c-a356-4930-9b1a-ea5f66f8c91a</div></td></tr><tr><td style="font-weight:bold;vertical-align:top;">session_id_name</td><td style="vertical-align:top;">:</td><td><div>session_id_pydoctor</div></td></tr><tr><td style="font-weight:bold;vertical-align:top;">session_locked</td><td style="vertical-align:top;">:</td><td><div>True</div></td></tr><tr><td style="font-weight:bold;vertical-align:top;">session_masterapp</td><td style="vertical-align:top;">:</td><td><div>PyDoctor</div></td></tr><tr><td style="font-weight:bold;vertical-align:top;">session_new</td><td style="vertical-align:top;">:</td><td><div>False</div></td></tr><tr><td style="font-weight:bold;vertical-align:top;">session_storage_type</td><td style="vertical-align:top;">:</td><td><div>file</div></td></tr><tr><td style="font-weight:bold;vertical-align:top;">status</td><td style="vertical-align:top;">:</td><td><div>200</div></td></tr><tr><td style="font-weight:bold;vertical-align:top;">subtitle</td><td style="vertical-align:top;">:</td><td><div>Sistema de gesti\xc3\xb3n para estudios jur\xc3\xaddicos</div></td></tr><tr><td style="font-weight:bold;vertical-align:top;">title</td><td style="vertical-align:top;">:</td><td><div>Pydoctor</div></td></tr><tr><td style="font-weight:bold;vertical-align:top;">view</td><td style="vertical-align:top;">:</td><td><div>default/admin_expedientes.html</div></td></tr></table></div>'
tRp699
sS'locals'
p700
(dp701
S'prefix'
p702
S"''"
p703
sS'message'
p704
S'<gluon.html.B object>'
p705
sS'self'
p706
S'<gluon.languages.translator object>'
p707
sssS'traceback'
p708
S'Traceback (most recent call last):\n  File "/home/marian/web2py/gluon/restricted.py", line 227, in restricted\n    exec ccode in environment\n  File "/home/marian/web2py/applications/PyDoctor/views/default/admin_expedientes.html", line 87, in <module>\n  File "/home/marian/web2py/gluon/globals.py", line 435, in write\n    self.body.write(xmlescape(data))\n  File "/home/marian/web2py/gluon/html.py", line 130, in xmlescape\n    return data.xml()\n  File "/home/marian/web2py/gluon/html.py", line 963, in xml\n    (fa, co) = self._xml()\n  File "/home/marian/web2py/gluon/html.py", line 954, in _xml\n    self.components])\n  File "/home/marian/web2py/gluon/html.py", line 130, in xmlescape\n    return data.xml()\n  File "/home/marian/web2py/gluon/html.py", line 2187, in xml\n    return DIV.xml(newform)\n  File "/home/marian/web2py/gluon/html.py", line 963, in xml\n    (fa, co) = self._xml()\n  File "/home/marian/web2py/gluon/html.py", line 954, in _xml\n    self.components])\n  File "/home/marian/web2py/gluon/html.py", line 130, in xmlescape\n    return data.xml()\n  File "/home/marian/web2py/gluon/html.py", line 963, in xml\n    (fa, co) = self._xml()\n  File "/home/marian/web2py/gluon/html.py", line 954, in _xml\n    self.components])\n  File "/home/marian/web2py/gluon/html.py", line 130, in xmlescape\n    return data.xml()\n  File "/home/marian/web2py/gluon/html.py", line 963, in xml\n    (fa, co) = self._xml()\n  File "/home/marian/web2py/gluon/html.py", line 954, in _xml\n    self.components])\n  File "/home/marian/web2py/gluon/html.py", line 130, in xmlescape\n    return data.xml()\n  File "/home/marian/web2py/gluon/html.py", line 963, in xml\n    (fa, co) = self._xml()\n  File "/home/marian/web2py/gluon/html.py", line 954, in _xml\n    self.components])\n  File "/home/marian/web2py/gluon/html.py", line 130, in xmlescape\n    return data.xml()\n  File "/home/marian/web2py/gluon/html.py", line 1927, in xml\n    return DIV.xml(self)\n  File "/home/marian/web2py/gluon/html.py", line 963, in xml\n    (fa, co) = self._xml()\n  File "/home/marian/web2py/gluon/html.py", line 954, in _xml\n    self.components])\n  File "/home/marian/web2py/gluon/html.py", line 130, in xmlescape\n    return data.xml()\n  File "/home/marian/web2py/gluon/html.py", line 963, in xml\n    (fa, co) = self._xml()\n  File "/home/marian/web2py/gluon/html.py", line 954, in _xml\n    self.components])\n  File "/home/marian/web2py/gluon/html.py", line 130, in xmlescape\n    return data.xml()\n  File "/home/marian/web2py/gluon/languages.py", line 423, in xml\n    return str(self) if self.M else escape(str(self))\n  File "/home/marian/web2py/gluon/languages.py", line 383, in __str__\n    self.T.translate(self.m, self.s))\n  File "/home/marian/web2py/gluon/languages.py", line 929, in translate\n    lambda: self.get_t(message))\n  File "/home/marian/web2py/gluon/languages.py", line 143, in get_from_cache\n    result = lang_dict.setdefault(val, fun())\n  File "/home/marian/web2py/gluon/languages.py", line 929, in <lambda>\n    lambda: self.get_t(message))\n  File "/home/marian/web2py/gluon/languages.py", line 801, in get_t\n    key = prefix + message\nTypeError: cannot concatenate \'str\' and \'B\' objects\n'
p709
s.