(dp1
S'output'
p2
S"<type 'exceptions.NameError'> name 'exp_titulo' is not defined"
p3
sS'layer'
p4
S'/home/marian/web2py/applications/PyDoctor/models/db_pydoctor.py'
p5
sS'code'
p6
S'# -*- coding: utf-8 -*-\nimport html2text\nfrom gluon.contrib.markdown.markdown2 import markdown\n\ndef advanced_repr(value, row):\n    if not value:\n        return \'\'\n    mdtext=html2text.html2text(value)\n    if len(mdtext)>=300:\n        mdtext=mdtext[:280]+\' ...\'\n    mdtext=mdtext.replace(\'\\n\',\' \')\n    return XML(markdown(mdtext))\n\ndb = DAL(\'sqlite://storage2.sqlite\')\nfrom gluon.tools import *\n\ndef advanced_editor(field, value):\n    return TEXTAREA(_id = str(field).replace(\'.\',\'_\'),\n                    _name=field.name,\n                    _class=\'text ckeditor\',\n                    value=value, _cols=80, _rows=15)\n\nauth = Auth(globals(),db)\nauth.define_tables()\ncrud = Crud(globals(),db)\n\ndb.define_table(\'persona\',\n                Field(\'sexo\',length=2, requires = IS_IN_SET({\'F\':\'Femenino\', \'M\':\'Masculino\', \'J\':\'Persona Jur\xc3\xaddica\'},\n                                                   zero=T(\'Elija persona jur\xc3\xaddica o sexo\'),\n                                                   error_message=\'debe elegir persona jur\xc3\xaddica o sexo persona f\xc3\xadsica\')),\n                Field(\'apellido\',length=70,required=True,label=T(\'Apellido o Raz\xc3\xb3n Social\')),\n                Field(\'nombre\',length=100,label=T(\'Nombre\')),\n                Field(\'cuitcuil\',length=20,required=True,label=T(\'CUIT/CUIL\')),\n                Field(\'domicilio\',length=150,required=True,label=T(\'Domicilio\')),\n                Field(\'email\',length=150,requires=IS_EMPTY_OR(IS_EMAIL()),label=T(\'E-Mail\')),\n                Field(\'observaciones\',\'text\',length=65535,label=T(\'Observaciones\'),\n                      widget = advanced_editor,\n                      represent = advanced_repr ),\n                Field(\'telefono\',length=50,label=T(\'Tel\xc3\xa9fono\')),\n                Field(\'celular\',length=50,label=T(\'Celular\')),\n                Field(\'fotografia\',\'upload\',length=65536,requires = IS_EMPTY_OR(IS_IMAGE())),\n                Field(\'matricula\',length=10,label=T(\'Matr\xc3\xadcula\'),comment=T(\'Matr\xc3\xadcula profesional de abogado\')),\n                Field(\'domiciliolegal\',length=150,label=T(\'Domicilio Legal\'),comment=T(\'Domicilio legal del abogado\')),\n                auth.signature,\n               format=\'%(apellido)s,%(nombre)s %(cuitcuil)s\')\ndb.persona.id.readable=db.persona.id.writable=False\n\ndb.define_table(\'fuero\',\n                Field(\'descripcion\',length=60,required=True,label=T(\'Descripci\xc3\xb3n\')),\n               format=\'%(descripcion)s\')\ndb.fuero.id.readable=db.fuero.id.writable=False\n\ndb.define_table(\'instancia\',\n                Field(\'descripcion\',length=60,required=True,label=T(\'Descripci\xc3\xb3n\')),\n               format=\'%(descripcion)s\')\ndb.instancia.id.readable=db.instancia.id.writable=False\n\ndb.define_table(\'juzgado\',\n                Field(\'descripcion\',length=120,required=True,label=T(\'Descripci\xc3\xb3n\')),\n                Field(\'fuero_id\',db.fuero,label=T(\'Fuero\')),\n                Field(\'instancia_id\',db.instancia,label=T(\'Instancia\')),\n                auth.signature,\n                format=\'%(descripcion)s\')\n#db.juzgado.fuero_id.widget = SQLFORM.widgets.autocomplete(\n#     request, db.fuero.descripcion, id_field=db.fuero.id)\n#db.juzgado.instancia_id.widget = SQLFORM.widgets.autocomplete(\n#     request, db.instancia.descripcion, id_field=db.instancia.id)\ndb.juzgado.fuero_id.requires = IS_IN_DB(db,db.fuero.id,\'%(descripcion)s\')\ndb.juzgado.instancia_id.requires = IS_IN_DB(db,db.instancia.id,\'%(descripcion)s\')\ndb.juzgado.descripcion.requires = IS_NOT_IN_DB(db, \'juzgado.descripcion\')\ndb.juzgado.id.readable=db.juzgado.id.writable=False\n\n#Listado de tipos de proceso posibles.\ndb.define_table(\'tipoproceso\',\n               Field(\'descripcion\',length=150,required=True,label=T(\'Descripci\xc3\xb3n\')),\n               format=\'%(descripcion)s\',\n               singular=T(\'Tipo de proceso\'),\n               plural=T(\'Tipo de proceso\'),)\ndb.fuero.id.readable=db.fuero.id.writable=False\n\n#def exp_titulo(value,row):\nimg=IMG(_src=URL(\'static\',\'expedientes.png\'),_width=16,_height=16)\nanchor=A(img,_href=URL(\'default\',\'admin_expedientes\',args=[\'edit\',\'expediente\',\'%(id)s\']))\nexpte_format=CAT(anchor,\'%(numero)s %(caratula)s\')\n\n\ndb.define_table(\'expediente\',\n                Field(\'numero\',length=40,requires = IS_NOT_IN_DB(db, \'expediente.numero\'),label=T(\'N\xc2\xba\'),represent=exp_titulo),\n                Field(\'caratula\',length=200,required=True, label=T(\'Car\xc3\xa1tula\')),\n                Field(\'tipoproceso_id\',db.tipoproceso, label=T(\'Tipo\'),\n                      comment=T(\'Tipo de proceso\')),\n                Field(\'juzgado_id\',db.juzgado, label=T(\'Origen\'),\n                      comment=T(\'Juzgado o Fiscal\xc3\xada de origen\')),\n                Field(\'inicio\',\'date\', label=T(\'Fecha inicio\')),\n                Field(\'final\',\'date\', label=T(\'Fecha fin\')),\n                auth.signature,\n               #format=\'%(numero)s %(caratula)s\'\n               format=expte_format)\n#widget = lambda field, value:\n    #SQLFORM.widgets.string.widget(field, value, _class=\'my-string\')\ndb.expediente.id.readable=db.expediente.id.writable=False\ndb.expediente.juzgado_id.widget = SQLFORM.widgets.autocomplete(\n     request, db.juzgado.descripcion, id_field=db.juzgado.id)\ndb.expediente.tipoproceso_id.widget = SQLFORM.widgets.autocomplete(\n     request, db.tipoproceso.descripcion, id_field=db.tipoproceso.id)\n\nautocomplete_expte_widget=SQLFORM.widgets.autocomplete(\n     request, db.expediente.numero, id_field=db.expediente.id)\ndef movimiento_titulo(value,row):\n    if row.estado != \'B\':\n        value=B(value)\n    if row.estado != \'P\':\n        value=I(value)\n    return value\n\ndb.define_table(\'movimiento\',\n                Field(\'expediente_id\',db.expediente, widget=autocomplete_expte_widget),\n                Field(\'estado\',length=2,readable=False,\n                      requires = IS_IN_SET({\'P\':\'Procesal\', \'E\':\'Extraprocesal\',\'B\':\'Borrador\'},\n                          zero=None,\n                          error_message=\'Seleccione estado del movimiento\')),\n                Field(\'titulo\',length=150,required=True, label=T(\'T\xc3\xadtulo\'), represent=movimiento_titulo),\n                Field(\'texto\',\'text\',length=65536,label=T(\'Texto\'),\n                      requires = IS_NOT_EMPTY(),\n                      widget = advanced_editor,\n                      represent = advanced_repr ),\n                Field(\'archivo\',\'upload\'),\n                auth.signature,\n                singular = T("Movimiento"), plural = T("Movimientos"),\n               format=\'%(titulo)s\')\ndb.movimiento.id.readable=db.movimiento.id.writable=False\n\ncolors=[(T(\'Urgente\'),\'#b94a48\',\'glyphicon-fire\'),\n         (T(\'Prioritario\'),\'#c09853\',\'glyphicon-exclamation-sign\'),\n         (T(\'Importante\'),\'#446e9b\',\'glyphicon-star\'),\n         (T(\'Recordar\'),\'#468847\',\'glyphicon-heart\')]\nprioridad_set=dict([(k,v[0]) for k,v in enumerate(colors)])\n\'\'\'\n446e9b\tblue\nc09853\tyellow\nb94a48\tred\n468847\tgreen\'\'\'\n\ndef agenda_titulo(value,row):\n    p=colors[int(row.prioridad)]\n    icon=SPAN(\'\',_style="color:%s"%p[1],_class="glyphicon %s"%p[2])\n    if row.estado == \'R\':\n        icon+=SPAN(\'\',_class="glyphicon glyphicon-ok")\n    elif row.estado == \'C\':\n        icon+=SPAN(\'\',_class="glyphicon glyphicon-remove")\n    #value=\n    if row.estado == \'C\':\n        value=I(value)\n    elif row.estado == \'P\':\n        value=B(value)\n    value=P(icon+\' \'+value)\n    return value\n\ndb.define_table(\'agenda\',\n                Field(\'expediente_id\',db.expediente, widget=autocomplete_expte_widget),\n                Field(\'vencimiento\',\'datetime\',label=T(\'Vence en\')),\n                Field(\'cumplido\',\'datetime\',label=T(\'Cumplido el\')),\n                Field(\'prioridad\',length=2,readable=False, \n                      requires = IS_IN_SET(prioridad_set,\n                          zero=None,\n                          error_message=\'Elija una prioridad\')),\n                Field(\'estado\', length=2, readable=False, \n                      requires = IS_IN_SET({\'P\': T(\'Pendiente\'), \'C\':T(\'Cancelada\'), \'R\': T(\'Realizada\')},\n                          zero=None,\n                          error_message=T(\'Establezca un estado\'))),\n                Field(\'titulo\',length=150,required=True, label=T(\'T\xc3\xadtulo\'), represent = agenda_titulo),\n                Field(\'texto\',\'text\',length=65536,label=T(\'Texto\'),widget = advanced_editor, represent = advanced_repr),\n                auth.signature)\n\ndb.agenda.id.readable=db.agenda.id.writable=False\n\ndb.define_table(\'parte\',\n                Field(\'expediente_id\',db.expediente, widget=autocomplete_expte_widget),\n                Field(\'persona_id\',db.persona,label=T(\'Persona\')),\n                Field(\'caracter\',length=80,label=T(\'Car\xc3\xa1cter\'),comment=T(\'Car\xc3\xa1cter en que se presenta la parte: actor, demandado, imputado, etc\')),\n                Field(\'observaciones\',\'text\',length=65536,widget = advanced_editor, represent = advanced_repr ),\n                auth.signature)\n\ndb.parte.id.readable=db.parte.id.writable=False\n'
p7
sS'snapshot'
p8
(dp9
S'exception'
p10
(dp11
S'__hash__'
p12
S"<method-wrapper '__hash__' of exceptions.NameError object>"
p13
sS'__setattr__'
p14
S"<method-wrapper '__setattr__' of exceptions.NameError object>"
p15
sS'__reduce_ex__'
p16
S'<built-in method __reduce_ex__ of exceptions.NameError object>'
p17
sS'__getslice__'
p18
S"<method-wrapper '__getslice__' of exceptions.NameError object>"
p19
sS'__getitem__'
p20
S"<method-wrapper '__getitem__' of exceptions.NameError object>"
p21
sS'__setstate__'
p22
S'<built-in method __setstate__ of exceptions.NameError object>'
p23
sS'args'
p24
S'("name \'exp_titulo\' is not defined",)'
p25
sS'__reduce__'
p26
S'<built-in method __reduce__ of exceptions.NameError object>'
p27
sS'__str__'
p28
S"<method-wrapper '__str__' of exceptions.NameError object>"
p29
sS'__format__'
p30
S'<built-in method __format__ of exceptions.NameError object>'
p31
sS'__getattribute__'
p32
S"<method-wrapper '__getattribute__' of exceptions.NameError object>"
p33
sS'__class__'
p34
S"<type 'exceptions.NameError'>"
p35
sS'__unicode__'
p36
S'<built-in method __unicode__ of exceptions.NameError object>'
p37
sS'__delattr__'
p38
S"<method-wrapper '__delattr__' of exceptions.NameError object>"
p39
sS'__subclasshook__'
p40
S'<built-in method __subclasshook__ of type object>'
p41
sS'__repr__'
p42
S"<method-wrapper '__repr__' of exceptions.NameError object>"
p43
sS'__dict__'
p44
S'{}'
p45
sS'__sizeof__'
p46
S'<built-in method __sizeof__ of exceptions.NameError object>'
p47
sS'__doc__'
p48
S"'Name not found globally.'"
p49
sS'__init__'
p50
S"<method-wrapper '__init__' of exceptions.NameError object>"
p51
sS'__new__'
p52
S'<built-in method __new__ of type object>'
p53
ssS'evalue'
p54
S"name 'exp_titulo' is not defined"
p55
sS'request'
p56
cgluon.html
XML_unpickle
p57
(S's0^\x00\x00<div><table><tr><td style="font-weight:bold;vertical-align:top;">ajax</td><td style="vertical-align:top;">:</td><td><div>False</div></td></tr><tr><td style="font-weight:bold;vertical-align:top;">application</td><td style="vertical-align:top;">:</td><td><div>PyDoctor</div></td></tr><tr><td style="font-weight:bold;vertical-align:top;">args</td><td style="vertical-align:top;">:</td><td><div><table><tr><td><div>edit</div></td></tr><tr><td><div>persona</div></td></tr><tr><td><div>1820</div></td></tr></table></div></td></tr><tr><td style="font-weight:bold;vertical-align:top;">cid</td><td style="vertical-align:top;">:</td><td><div>None</div></td></tr><tr><td style="font-weight:bold;vertical-align:top;">client</td><td style="vertical-align:top;">:</td><td><div>127.0.0.1</div></td></tr><tr><td style="font-weight:bold;vertical-align:top;">controller</td><td style="vertical-align:top;">:</td><td><div>default</div></td></tr><tr><td style="font-weight:bold;vertical-align:top;">cookies</td><td style="vertical-align:top;">:</td><td><div><table><tr><td style="font-weight:bold;vertical-align:top;">session_id_admin</td><td style="vertical-align:top;">:</td><td><div>127.0.0.1-aa9a37b6-5398-4952-85b7-cefb941e4789<table><tr><td style="font-weight:bold;vertical-align:top;">comment</td><td style="vertical-align:top;">:</td><td><div></div></td></tr><tr><td style="font-weight:bold;vertical-align:top;">domain</td><td style="vertical-align:top;">:</td><td><div></div></td></tr><tr><td style="font-weight:bold;vertical-align:top;">expires</td><td style="vertical-align:top;">:</td><td><div></div></td></tr><tr><td style="font-weight:bold;vertical-align:top;">httponly</td><td style="vertical-align:top;">:</td><td><div></div></td></tr><tr><td style="font-weight:bold;vertical-align:top;">max-age</td><td style="vertical-align:top;">:</td><td><div></div></td></tr><tr><td style="font-weight:bold;vertical-align:top;">path</td><td style="vertical-align:top;">:</td><td><div></div></td></tr><tr><td style="font-weight:bold;vertical-align:top;">secure</td><td style="vertical-align:top;">:</td><td><div></div></td></tr><tr><td style="font-weight:bold;vertical-align:top;">version</td><td style="vertical-align:top;">:</td><td><div></div></td></tr></table></div></td></tr><tr><td style="font-weight:bold;vertical-align:top;">session_id_pydoctor</td><td style="vertical-align:top;">:</td><td><div>127.0.0.1-5b40538b-5d3a-4409-9542-f15a4682b249<table><tr><td style="font-weight:bold;vertical-align:top;">comment</td><td style="vertical-align:top;">:</td><td><div></div></td></tr><tr><td style="font-weight:bold;vertical-align:top;">domain</td><td style="vertical-align:top;">:</td><td><div></div></td></tr><tr><td style="font-weight:bold;vertical-align:top;">expires</td><td style="vertical-align:top;">:</td><td><div></div></td></tr><tr><td style="font-weight:bold;vertical-align:top;">httponly</td><td style="vertical-align:top;">:</td><td><div></div></td></tr><tr><td style="font-weight:bold;vertical-align:top;">max-age</td><td style="vertical-align:top;">:</td><td><div></div></td></tr><tr><td style="font-weight:bold;vertical-align:top;">path</td><td style="vertical-align:top;">:</td><td><div></div></td></tr><tr><td style="font-weight:bold;vertical-align:top;">secure</td><td style="vertical-align:top;">:</td><td><div></div></td></tr><tr><td style="font-weight:bold;vertical-align:top;">version</td><td style="vertical-align:top;">:</td><td><div></div></td></tr></table></div></td></tr><tr><td style="font-weight:bold;vertical-align:top;">session_id_welcome</td><td style="vertical-align:top;">:</td><td><div>127.0.0.1-88da6817-9ad7-485f-a9ff-f0383d6bb332<table><tr><td style="font-weight:bold;vertical-align:top;">comment</td><td style="vertical-align:top;">:</td><td><div></div></td></tr><tr><td style="font-weight:bold;vertical-align:top;">domain</td><td style="vertical-align:top;">:</td><td><div></div></td></tr><tr><td style="font-weight:bold;vertical-align:top;">expires</td><td style="vertical-align:top;">:</td><td><div></div></td></tr><tr><td style="font-weight:bold;vertical-align:top;">httponly</td><td style="vertical-align:top;">:</td><td><div></div></td></tr><tr><td style="font-weight:bold;vertical-align:top;">max-age</td><td style="vertical-align:top;">:</td><td><div></div></td></tr><tr><td style="font-weight:bold;vertical-align:top;">path</td><td style="vertical-align:top;">:</td><td><div></div></td></tr><tr><td style="font-weight:bold;vertical-align:top;">secure</td><td style="vertical-align:top;">:</td><td><div></div></td></tr><tr><td style="font-weight:bold;vertical-align:top;">version</td><td style="vertical-align:top;">:</td><td><div></div></td></tr></table></div></td></tr></table></div></td></tr><tr><td style="font-weight:bold;vertical-align:top;">env</td><td style="vertical-align:top;">:</td><td><div><table><tr><td style="font-weight:bold;vertical-align:top;">HTTP_ACCEPT</td><td style="vertical-align:top;">:</td><td><div>text/html,application/xhtml+xml,application/xml;q=0.9,*/*;q=0.8</div></td></tr><tr><td style="font-weight:bold;vertical-align:top;">HTTP_ACCEPT_ENCODING</td><td style="vertical-align:top;">:</td><td><div>gzip, deflate</div></td></tr><tr><td style="font-weight:bold;vertical-align:top;">HTTP_ACCEPT_LANGUAGE</td><td style="vertical-align:top;">:</td><td><div>en-US,en;q=0.5</div></td></tr><tr><td style="font-weight:bold;vertical-align:top;">HTTP_CACHE_CONTROL</td><td style="vertical-align:top;">:</td><td><div>max-age=0</div></td></tr><tr><td style="font-weight:bold;vertical-align:top;">HTTP_CONNECTION</td><td style="vertical-align:top;">:</td><td><div>keep-alive</div></td></tr><tr><td style="font-weight:bold;vertical-align:top;">HTTP_COOKIE</td><td style="vertical-align:top;">:</td><td><div>session_id_welcome=127.0.0.1-88da6817-9ad7-485f-a9ff-f0383d6bb332; session_id_admin=127.0.0.1-aa9a37b6-5398-4952-85b7-cefb941e4789; session_id_pydoctor=127.0.0.1-5b40538b-5d3a-4409-9542-f15a4682b249</div></td></tr><tr><td style="font-weight:bold;vertical-align:top;">HTTP_HOST</td><td style="vertical-align:top;">:</td><td><div>127.0.0.1:8000</div></td></tr><tr><td style="font-weight:bold;vertical-align:top;">HTTP_REFERER</td><td style="vertical-align:top;">:</td><td><div>http://127.0.0.1:8000/PyDoctor/default/admin_personas?keywords=persona.apellido+starts+with+%22Ganymede%22</div></td></tr><tr><td style="font-weight:bold;vertical-align:top;">HTTP_USER_AGENT</td><td style="vertical-align:top;">:</td><td><div>Mozilla/5.0 (X11; Ubuntu; Linux x86_64; rv:44.0) Gecko/20100101 Firefox/44.0</div></td></tr><tr><td style="font-weight:bold;vertical-align:top;">PATH_INFO</td><td style="vertical-align:top;">:</td><td><div>/PyDoctor/default/admin_personas/edit/persona/1820</div></td></tr><tr><td style="font-weight:bold;vertical-align:top;">QUERY_STRING</td><td style="vertical-align:top;">:</td><td><div>keywords=persona.apellido+starts+with+%22Ganymede%22&amp;_signature=510ac15134c072efddf4e330f666d822d4ea408a</div></td></tr><tr><td style="font-weight:bold;vertical-align:top;">REMOTE_ADDR</td><td style="vertical-align:top;">:</td><td><div>127.0.0.1</div></td></tr><tr><td style="font-weight:bold;vertical-align:top;">REMOTE_PORT</td><td style="vertical-align:top;">:</td><td><div>56568</div></td></tr><tr><td style="font-weight:bold;vertical-align:top;">REQUEST_METHOD</td><td style="vertical-align:top;">:</td><td><div>GET</div></td></tr><tr><td style="font-weight:bold;vertical-align:top;">SCRIPT_NAME</td><td style="vertical-align:top;">:</td><td><div></div></td></tr><tr><td style="font-weight:bold;vertical-align:top;">SERVER_NAME</td><td style="vertical-align:top;">:</td><td><div>marian-GA-MA770T-UD3</div></td></tr><tr><td style="font-weight:bold;vertical-align:top;">SERVER_PORT</td><td style="vertical-align:top;">:</td><td><div>8000</div></td></tr><tr><td style="font-weight:bold;vertical-align:top;">SERVER_PROTOCOL</td><td style="vertical-align:top;">:</td><td><div>HTTP/1.1</div></td></tr><tr><td style="font-weight:bold;vertical-align:top;">SERVER_SOFTWARE</td><td style="vertical-align:top;">:</td><td><div>Rocket 1.2.6</div></td></tr><tr><td style="font-weight:bold;vertical-align:top;">app_folders</td><td style="vertical-align:top;">:</td><td><div>set([&#x27;/home/marian/web2py/applications/welcome/&#x27;, &#x27;/home/marian/web2py/applications/PyDoctor/&#x27;, &#x27;/home/marian/web2py/applications/admin/&#x27;])</div></td></tr><tr><td style="font-weight:bold;vertical-align:top;">applications_parent</td><td style="vertical-align:top;">:</td><td><div>/home/marian/web2py</div></td></tr><tr><td style="font-weight:bold;vertical-align:top;">cmd_args</td><td style="vertical-align:top;">:</td><td><div><table></table></div></td></tr><tr><td style="font-weight:bold;vertical-align:top;">cmd_options</td><td style="vertical-align:top;">:</td><td><div>&lt;Values at 0x7fb44601cd40: {&#x27;verbose&#x27;: False, &#x27;ip&#x27;: &#x27;127.0.0.1&#x27;, &#x27;debuglevel&#x27;: 30, &#x27;with_scheduler&#x27;: False, &#x27;ips&#x27;: [&#x27;127.0.1.1&#x27;], &#x27;shutdown_timeout&#x27;: 5, &#x27;taskbar&#x27;: False, &#x27;with_coverage&#x27;: False, &#x27;scheduler_groups&#x27;: None, &#x27;port&#x27;: 8000, &#x27;maxthreads&#x27;: None, &#x27;softcron&#x27;: False, &#x27;server_name&#x27;: &#x27;marian-GA-MA770T-UD3&#x27;, &#x27;bpython&#x27;: False, &#x27;nogui&#x27;: False, &#x27;pid_filename&#x27;: &#x27;httpserver.pid&#x27;, &#x27;print_errors&#x27;: False, &#x27;extcron&#x27;: False, &#x27;runcron&#x27;: False, &#x27;run_system_tests&#x27;: False, &#x27;test&#x27;: None, &#x27;folder&#x27;: &#x27;/home/marian/web2py&#x27;, &#x27;config&#x27;: &#x27;&#x27;, &#x27;minthreads&#x27;: None, &#x27;shell&#x27;: None, &#x27;run&#x27;: &#x27;&#x27;, &#x27;log_filename&#x27;: &#x27;httpserver.log&#x27;, &#x27;profiler_dir&#x27;: None, &#x27;args&#x27;: [&#x27;&#x27;], &#x27;socket_timeout&#x27;: 5, &#x27;ssl_ca_certificate&#x27;: None, &#x27;scheduler&#x27;: None, &#x27;interfaces&#x27;: None, &#x27;ssl_private_key&#x27;: &#x27;&#x27;, &#x27;gae&#x27;: None, &#x27;password&#x27;: &#x27;&lt;ask&gt;&#x27;, &#x27;request_queue_size&#x27;: 5, &#x27;ssl_certificate&#x27;: &#x27;&#x27;, &#x27;cronjob&#x27;: False, &#x27;numthreads&#x27;: None, &#x27;quiet&#x27;: False, &#x27;import_models&#x27;: False, &#x27;timeout&#x27;: 10, &#x27;plain&#x27;: False, &#x27;nobanner&#x27;: False}&gt;</div></td></tr><tr><td style="font-weight:bold;vertical-align:top;">db_sessions</td><td style="vertical-align:top;">:</td><td><div>set([])</div></td></tr><tr><td style="font-weight:bold;vertical-align:top;">debugging</td><td style="vertical-align:top;">:</td><td><div>True</div></td></tr><tr><td style="font-weight:bold;vertical-align:top;">gluon_parent</td><td style="vertical-align:top;">:</td><td><div>/home/marian/web2py</div></td></tr><tr><td style="font-weight:bold;vertical-align:top;">http_accept</td><td style="vertical-align:top;">:</td><td><div>text/html,application/xhtml+xml,application/xml;q=0.9,*/*;q=0.8</div></td></tr><tr><td style="font-weight:bold;vertical-align:top;">http_accept_encoding</td><td style="vertical-align:top;">:</td><td><div>gzip, deflate</div></td></tr><tr><td style="font-weight:bold;vertical-align:top;">http_accept_language</td><td style="vertical-align:top;">:</td><td><div>en-US,en;q=0.5</div></td></tr><tr><td style="font-weight:bold;vertical-align:top;">http_cache_control</td><td style="vertical-align:top;">:</td><td><div>max-age=0</div></td></tr><tr><td style="font-weight:bold;vertical-align:top;">http_connection</td><td style="vertical-align:top;">:</td><td><div>keep-alive</div></td></tr><tr><td style="font-weight:bold;vertical-align:top;">http_cookie</td><td style="vertical-align:top;">:</td><td><div>session_id_welcome=127.0.0.1-88da6817-9ad7-485f-a9ff-f0383d6bb332; session_id_admin=127.0.0.1-aa9a37b6-5398-4952-85b7-cefb941e4789; session_id_pydoctor=127.0.0.1-5b40538b-5d3a-4409-9542-f15a4682b249</div></td></tr><tr><td style="font-weight:bold;vertical-align:top;">http_host</td><td style="vertical-align:top;">:</td><td><div>127.0.0.1:8000</div></td></tr><tr><td style="font-weight:bold;vertical-align:top;">http_referer</td><td style="vertical-align:top;">:</td><td><div>http://127.0.0.1:8000/PyDoctor/default/admin_personas?keywords=persona.apellido+starts+with+%22Ganymede%22</div></td></tr><tr><td style="font-weight:bold;vertical-align:top;">http_user_agent</td><td style="vertical-align:top;">:</td><td><div>Mozilla/5.0 (X11; Ubuntu; Linux x86_64; rv:44.0) Gecko/20100101 Firefox/44.0</div></td></tr><tr><td style="font-weight:bold;vertical-align:top;">is_jython</td><td style="vertical-align:top;">:</td><td><div>False</div></td></tr><tr><td style="font-weight:bold;vertical-align:top;">is_pypy</td><td style="vertical-align:top;">:</td><td><div>False</div></td></tr><tr><td style="font-weight:bold;vertical-align:top;">is_source</td><td style="vertical-align:top;">:</td><td><div>True</div></td></tr><tr><td style="font-weight:bold;vertical-align:top;">local_hosts</td><td style="vertical-align:top;">:</td><td><div><table><tr><td><div>::1</div></td></tr><tr><td><div>127.0.1.1</div></td></tr><tr><td><div>::ffff:127.0.0.1</div></td></tr><tr><td><div>127.0.0.1</div></td></tr><tr><td><div>marian-GA-MA770T-UD3</div></td></tr></table></div></td></tr><tr><td style="font-weight:bold;vertical-align:top;">path_info</td><td style="vertical-align:top;">:</td><td><div>/PyDoctor/default/admin_personas/edit/persona/1820</div></td></tr><tr><td style="font-weight:bold;vertical-align:top;">query_string</td><td style="vertical-align:top;">:</td><td><div>keywords=persona.apellido+starts+with+%22Ganymede%22&amp;_signature=510ac15134c072efddf4e330f666d822d4ea408a</div></td></tr><tr><td style="font-weight:bold;vertical-align:top;">remote_addr</td><td style="vertical-align:top;">:</td><td><div>127.0.0.1</div></td></tr><tr><td style="font-weight:bold;vertical-align:top;">remote_port</td><td style="vertical-align:top;">:</td><td><div>56568</div></td></tr><tr><td style="font-weight:bold;vertical-align:top;">request_method</td><td style="vertical-align:top;">:</td><td><div>GET</div></td></tr><tr><td style="font-weight:bold;vertical-align:top;">request_uri</td><td style="vertical-align:top;">:</td><td><div>/PyDoctor/default/admin_personas/edit/persona/1820?keywords=persona.apellido+starts+with+%22Ganymede%22&amp;_signature=510ac15134c072efddf4e330f666d822d4ea408a</div></td></tr><tr><td style="font-weight:bold;vertical-align:top;">script_name</td><td style="vertical-align:top;">:</td><td><div></div></td></tr><tr><td style="font-weight:bold;vertical-align:top;">server_name</td><td style="vertical-align:top;">:</td><td><div>marian-GA-MA770T-UD3</div></td></tr><tr><td style="font-weight:bold;vertical-align:top;">server_port</td><td style="vertical-align:top;">:</td><td><div>8000</div></td></tr><tr><td style="font-weight:bold;vertical-align:top;">server_protocol</td><td style="vertical-align:top;">:</td><td><div>HTTP/1.1</div></td></tr><tr><td style="font-weight:bold;vertical-align:top;">server_software</td><td style="vertical-align:top;">:</td><td><div>Rocket 1.2.6</div></td></tr><tr><td style="font-weight:bold;vertical-align:top;">web2py_path</td><td style="vertical-align:top;">:</td><td><div>/home/marian/web2py</div></td></tr><tr><td style="font-weight:bold;vertical-align:top;">web2py_version</td><td style="vertical-align:top;">:</td><td><div>2.13.3-stable+timestamp.2015.12.24.08.08.22</div></td></tr><tr><td style="font-weight:bold;vertical-align:top;">wsgi.errors</td><td style="vertical-align:top;">:</td><td><div>&lt;open file &#x27;&lt;stderr&gt;&#x27;, mode &#x27;w&#x27; at 0x7fb44d0591e0&gt;</div></td></tr><tr><td style="font-weight:bold;vertical-align:top;">wsgi.file_wrapper</td><td style="vertical-align:top;">:</td><td><div>&lt;class wsgiref.util.FileWrapper at 0x7fb44604a390&gt;</div></td></tr><tr><td style="font-weight:bold;vertical-align:top;">wsgi.input</td><td style="vertical-align:top;">:</td><td><div>&lt;socket._fileobject object at 0x7fb406fc41d0&gt;</div></td></tr><tr><td style="font-weight:bold;vertical-align:top;">wsgi.multiprocess</td><td style="vertical-align:top;">:</td><td><div>False</div></td></tr><tr><td style="font-weight:bold;vertical-align:top;">wsgi.multithread</td><td style="vertical-align:top;">:</td><td><div>True</div></td></tr><tr><td style="font-weight:bold;vertical-align:top;">wsgi.run_once</td><td style="vertical-align:top;">:</td><td><div>False</div></td></tr><tr><td style="font-weight:bold;vertical-align:top;">wsgi.url_scheme</td><td style="vertical-align:top;">:</td><td><div>http</div></td></tr><tr><td style="font-weight:bold;vertical-align:top;">wsgi.version</td><td style="vertical-align:top;">:</td><td><div><table><tr><td><div>1</div></td></tr><tr><td><div>0</div></td></tr></table></div></td></tr><tr><td style="font-weight:bold;vertical-align:top;">wsgi_errors</td><td style="vertical-align:top;">:</td><td><div>&lt;open file &#x27;&lt;stderr&gt;&#x27;, mode &#x27;w&#x27; at 0x7fb44d0591e0&gt;</div></td></tr><tr><td style="font-weight:bold;vertical-align:top;">wsgi_file_wrapper</td><td style="vertical-align:top;">:</td><td><div>&lt;class wsgiref.util.FileWrapper at 0x7fb44604a390&gt;</div></td></tr><tr><td style="font-weight:bold;vertical-align:top;">wsgi_input</td><td style="vertical-align:top;">:</td><td><div>&lt;socket._fileobject object at 0x7fb406fc41d0&gt;</div></td></tr><tr><td style="font-weight:bold;vertical-align:top;">wsgi_multiprocess</td><td style="vertical-align:top;">:</td><td><div>False</div></td></tr><tr><td style="font-weight:bold;vertical-align:top;">wsgi_multithread</td><td style="vertical-align:top;">:</td><td><div>True</div></td></tr><tr><td style="font-weight:bold;vertical-align:top;">wsgi_run_once</td><td style="vertical-align:top;">:</td><td><div>False</div></td></tr><tr><td style="font-weight:bold;vertical-align:top;">wsgi_url_scheme</td><td style="vertical-align:top;">:</td><td><div>http</div></td></tr><tr><td style="font-weight:bold;vertical-align:top;">wsgi_version</td><td style="vertical-align:top;">:</td><td><div><table><tr><td><div>1</div></td></tr><tr><td><div>0</div></td></tr></table></div></td></tr></table></div></td></tr><tr><td style="font-weight:bold;vertical-align:top;">extension</td><td style="vertical-align:top;">:</td><td><div>html</div></td></tr><tr><td style="font-weight:bold;vertical-align:top;">folder</td><td style="vertical-align:top;">:</td><td><div>/home/marian/web2py/applications/PyDoctor/</div></td></tr><tr><td style="font-weight:bold;vertical-align:top;">function</td><td style="vertical-align:top;">:</td><td><div>admin_personas</div></td></tr><tr><td style="font-weight:bold;vertical-align:top;">global_settings</td><td style="vertical-align:top;">:</td><td><div><table><tr><td style="font-weight:bold;vertical-align:top;">app_folders</td><td style="vertical-align:top;">:</td><td><div>set([&#x27;/home/marian/web2py/applications/welcome/&#x27;, &#x27;/home/marian/web2py/applications/PyDoctor/&#x27;, &#x27;/home/marian/web2py/applications/admin/&#x27;])</div></td></tr><tr><td style="font-weight:bold;vertical-align:top;">applications_parent</td><td style="vertical-align:top;">:</td><td><div>/home/marian/web2py</div></td></tr><tr><td style="font-weight:bold;vertical-align:top;">cmd_args</td><td style="vertical-align:top;">:</td><td><div><table></table></div></td></tr><tr><td style="font-weight:bold;vertical-align:top;">cmd_options</td><td style="vertical-align:top;">:</td><td><div>&lt;Values at 0x7fb44601cd40: {&#x27;verbose&#x27;: False, &#x27;ip&#x27;: &#x27;127.0.0.1&#x27;, &#x27;debuglevel&#x27;: 30, &#x27;with_scheduler&#x27;: False, &#x27;ips&#x27;: [&#x27;127.0.1.1&#x27;], &#x27;shutdown_timeout&#x27;: 5, &#x27;taskbar&#x27;: False, &#x27;with_coverage&#x27;: False, &#x27;scheduler_groups&#x27;: None, &#x27;port&#x27;: 8000, &#x27;maxthreads&#x27;: None, &#x27;softcron&#x27;: False, &#x27;server_name&#x27;: &#x27;marian-GA-MA770T-UD3&#x27;, &#x27;bpython&#x27;: False, &#x27;nogui&#x27;: False, &#x27;pid_filename&#x27;: &#x27;httpserver.pid&#x27;, &#x27;print_errors&#x27;: False, &#x27;extcron&#x27;: False, &#x27;runcron&#x27;: False, &#x27;run_system_tests&#x27;: False, &#x27;test&#x27;: None, &#x27;folder&#x27;: &#x27;/home/marian/web2py&#x27;, &#x27;config&#x27;: &#x27;&#x27;, &#x27;minthreads&#x27;: None, &#x27;shell&#x27;: None, &#x27;run&#x27;: &#x27;&#x27;, &#x27;log_filename&#x27;: &#x27;httpserver.log&#x27;, &#x27;profiler_dir&#x27;: None, &#x27;args&#x27;: [&#x27;&#x27;], &#x27;socket_timeout&#x27;: 5, &#x27;ssl_ca_certificate&#x27;: None, &#x27;scheduler&#x27;: None, &#x27;interfaces&#x27;: None, &#x27;ssl_private_key&#x27;: &#x27;&#x27;, &#x27;gae&#x27;: None, &#x27;password&#x27;: &#x27;&lt;ask&gt;&#x27;, &#x27;request_queue_size&#x27;: 5, &#x27;ssl_certificate&#x27;: &#x27;&#x27;, &#x27;cronjob&#x27;: False, &#x27;numthreads&#x27;: None, &#x27;quiet&#x27;: False, &#x27;import_models&#x27;: False, &#x27;timeout&#x27;: 10, &#x27;plain&#x27;: False, &#x27;nobanner&#x27;: False}&gt;</div></td></tr><tr><td style="font-weight:bold;vertical-align:top;">db_sessions</td><td style="vertical-align:top;">:</td><td><div>set([])</div></td></tr><tr><td style="font-weight:bold;vertical-align:top;">debugging</td><td style="vertical-align:top;">:</td><td><div>True</div></td></tr><tr><td style="font-weight:bold;vertical-align:top;">gluon_parent</td><td style="vertical-align:top;">:</td><td><div>/home/marian/web2py</div></td></tr><tr><td style="font-weight:bold;vertical-align:top;">is_jython</td><td style="vertical-align:top;">:</td><td><div>False</div></td></tr><tr><td style="font-weight:bold;vertical-align:top;">is_pypy</td><td style="vertical-align:top;">:</td><td><div>False</div></td></tr><tr><td style="font-weight:bold;vertical-align:top;">is_source</td><td style="vertical-align:top;">:</td><td><div>True</div></td></tr><tr><td style="font-weight:bold;vertical-align:top;">local_hosts</td><td style="vertical-align:top;">:</td><td><div><table><tr><td><div>::1</div></td></tr><tr><td><div>127.0.1.1</div></td></tr><tr><td><div>::ffff:127.0.0.1</div></td></tr><tr><td><div>127.0.0.1</div></td></tr><tr><td><div>marian-GA-MA770T-UD3</div></td></tr></table></div></td></tr><tr><td style="font-weight:bold;vertical-align:top;">web2py_version</td><td style="vertical-align:top;">:</td><td><div>2.13.3-stable+timestamp.2015.12.24.08.08.22</div></td></tr></table></div></td></tr><tr><td style="font-weight:bold;vertical-align:top;">is_https</td><td style="vertical-align:top;">:</td><td><div>False</div></td></tr><tr><td style="font-weight:bold;vertical-align:top;">is_local</td><td style="vertical-align:top;">:</td><td><div>True</div></td></tr><tr><td style="font-weight:bold;vertical-align:top;">is_restful</td><td style="vertical-align:top;">:</td><td><div>False</div></td></tr><tr><td style="font-weight:bold;vertical-align:top;">is_scheduler</td><td style="vertical-align:top;">:</td><td><div>False</div></td></tr><tr><td style="font-weight:bold;vertical-align:top;">is_shell</td><td style="vertical-align:top;">:</td><td><div>False</div></td></tr><tr><td style="font-weight:bold;vertical-align:top;">now</td><td style="vertical-align:top;">:</td><td><div>datetime.datetime(2016, 2, 4, 21, 9, 11, 4729)</div></td></tr><tr><td style="font-weight:bold;vertical-align:top;">raw_args</td><td style="vertical-align:top;">:</td><td><div>edit/persona/1820</div></td></tr><tr><td style="font-weight:bold;vertical-align:top;">raw_extension</td><td style="vertical-align:top;">:</td><td><div>None</div></td></tr><tr><td style="font-weight:bold;vertical-align:top;">url</td><td style="vertical-align:top;">:</td><td><div>/PyDoctor/default/admin_personas/edit/persona/1820</div></td></tr><tr><td style="font-weight:bold;vertical-align:top;">utcnow</td><td style="vertical-align:top;">:</td><td><div>datetime.datetime(2016, 2, 5, 0, 9, 11, 4757)</div></td></tr><tr><td style="font-weight:bold;vertical-align:top;">wsgi</td><td style="vertical-align:top;">:</td><td><div>&lt;gluon.main.LazyWSGI object at 0x7fb40592fb10&gt;</div></td></tr></table></div>'
tRp58
sS'frames'
p59
(lp60
(dp61
S'file'
p62
S'/home/marian/web2py/gluon/restricted.py'
p63
sS'dump'
p64
(dp65
S'environment'
p66
S"{'A': <class 'gluon.html.A'>, 'ANY_OF': <class 'gluon.validators.ANY_OF'>, 'ASSIGNJS': <function ASSIGNJS>, 'AppConfig': <function AppConfig>, 'Auth': <class 'gluon.tools.Auth'>, 'B': <class 'gluon.html.B'>, 'BEAUTIFY': <class 'gluon.html.BEAUTIFY'>, 'BODY': <class 'gluon.html.BODY'>, 'BR': <class 'gluon.html.BR'>, 'BUTTON': <class 'gluon.html.BUTTON'>, ...}"
p67
sS'ccode'
p68
S'<code object <module> at 0x7fb405909030, file "/...ications/PyDoctor/models/db_pydoctor.py", line 2>'
p69
ssS'lnum'
p70
I227
sS'lines'
p71
(dp72
I224
S'            ccode = code'
p73
sI225
S'        else:'
p74
sI226
S'            ccode = compile2(code, layer)'
p75
sI227
S'        exec ccode in environment'
p76
sI228
S'    except HTTP:'
p77
sI229
S'        raise'
p78
sI230
S'    except RestrictedError:'
p79
sI231
S'        # do not encapsulate (obfuscate) the original RestrictedError'
p80
sI222
S'    try:'
p81
sI223
S'        if isinstance(code, types.CodeType):'
p82
ssS'call'
p83
S"(code='# -*- coding: utf-8 -*-\\nimport html2text\\nfrom gl...\\ndb.parte.id.readable=db.parte.id.writable=False\\n', environment={'A': <class 'gluon.html.A'>, 'ANY_OF': <class 'gluon.validators.ANY_OF'>, 'ASSIGNJS': <function ASSIGNJS>, 'AppConfig': <function AppConfig>, 'Auth': <class 'gluon.tools.Auth'>, 'B': <class 'gluon.html.B'>, 'BEAUTIFY': <class 'gluon.html.BEAUTIFY'>, 'BODY': <class 'gluon.html.BODY'>, 'BR': <class 'gluon.html.BR'>, 'BUTTON': <class 'gluon.html.BUTTON'>, ...}, layer='/home/marian/web2py/applications/PyDoctor/models/db_pydoctor.py')"
p84
sS'func'
p85
S'restricted'
p86
sa(dp87
g62
S'/home/marian/web2py/applications/PyDoctor/models/db_pydoctor.py'
p88
sg64
(dp89
S'represent'
p90
S'undefined'
p91
sS'IS_NOT_IN_DB'
p92
S"<class 'gluon.validators.IS_NOT_IN_DB'>"
p93
sS'db'
p94
S'<DAL uri="sqlite://storage2.sqlite">'
p95
sS'label'
p96
g91
sS'Field'
p97
S"<class 'pydal.objects.Field'>"
p98
sS'length'
p99
g91
sS'T'
S'<gluon.languages.translator object>'
p100
sS'requires'
p101
g91
sS'exp_titulo'
p102
g91
ssg70
I88
sg71
(dp103
I83
S"anchor=A(img,_href=URL('default','admin_expedientes',args=['edit','expediente','%(id)s']))"
p104
sI84
S"expte_format=CAT(anchor,'%(numero)s %(caratula)s')"
p105
sI85
S''
sI86
S''
sI87
S"db.define_table('expediente',"
p106
sI88
S"                Field('numero',length=40,requires = IS_NOT_IN_DB(db, 'expediente.numero'),label=T('N\xc2\xba'),represent=exp_titulo),"
p107
sI89
S"                Field('caratula',length=200,required=True, label=T('Car\xc3\xa1tula')),"
p108
sI90
S"                Field('tipoproceso_id',db.tipoproceso, label=T('Tipo'),"
p109
sI91
S"                      comment=T('Tipo de proceso')),"
p110
sI92
S"                Field('juzgado_id',db.juzgado, label=T('Origen'),"
p111
ssg83
S'()'
p112
sg85
S'<module>'
p113
sasS'pyver'
p114
S'Python 2.7.10: /usr/bin/python (prefix: /usr)'
p115
sS'session'
p116
g57
(S's\x01\n\x00\x00<div><table><tr><td style="font-weight:bold;vertical-align:top;">auth</td><td style="vertical-align:top;">:</td><td><div><table><tr><td style="font-weight:bold;vertical-align:top;">expiration</td><td style="vertical-align:top;">:</td><td><div>3600</div></td></tr><tr><td style="font-weight:bold;vertical-align:top;">hmac_key</td><td style="vertical-align:top;">:</td><td><div>ce736771-8937-4e03-a280-da07c9964b05</div></td></tr><tr><td style="font-weight:bold;vertical-align:top;">last_visit</td><td style="vertical-align:top;">:</td><td><div>datetime.datetime(2016, 2, 4, 21, 8, 51, 681489)</div></td></tr><tr><td style="font-weight:bold;vertical-align:top;">remember_me</td><td style="vertical-align:top;">:</td><td><div>False</div></td></tr><tr><td style="font-weight:bold;vertical-align:top;">user</td><td style="vertical-align:top;">:</td><td><div><table><tr><td style="font-weight:bold;vertical-align:top;">email</td><td style="vertical-align:top;">:</td><td><div>egomez@users.com</div></td></tr><tr><td style="font-weight:bold;vertical-align:top;">first_name</td><td style="vertical-align:top;">:</td><td><div>Elena</div></td></tr><tr><td style="font-weight:bold;vertical-align:top;">id</td><td style="vertical-align:top;">:</td><td><div>2L</div></td></tr><tr><td style="font-weight:bold;vertical-align:top;">last_name</td><td style="vertical-align:top;">:</td><td><div>Gomez</div></td></tr><tr><td style="font-weight:bold;vertical-align:top;">registration_id</td><td style="vertical-align:top;">:</td><td><div></div></td></tr><tr><td style="font-weight:bold;vertical-align:top;">registration_key</td><td style="vertical-align:top;">:</td><td><div></div></td></tr><tr><td style="font-weight:bold;vertical-align:top;">reset_password_key</td><td style="vertical-align:top;">:</td><td><div></div></td></tr></table></div></td></tr><tr><td style="font-weight:bold;vertical-align:top;">user_groups</td><td style="vertical-align:top;">:</td><td><div><table><tr><td style="font-weight:bold;vertical-align:top;">2</td><td style="vertical-align:top;">:</td><td><div>user_2</div></td></tr></table></div></td></tr></table></div></td></tr><tr><td style="font-weight:bold;vertical-align:top;">flash</td><td style="vertical-align:top;">:</td><td><div>None</div></td></tr><tr><td style="font-weight:bold;vertical-align:top;">last_orderby</td><td style="vertical-align:top;">:</td><td><div>None</div></td></tr><tr><td style="font-weight:bold;vertical-align:top;">last_query</td><td style="vertical-align:top;">:</td><td><div>db.parte.id&gt;0</div></td></tr></table></div>'
tRp117
sS'etype'
p118
S"<type 'exceptions.NameError'>"
p119
sS'date'
p120
S'Thu Feb  4 21:09:11 2016'
p121
sS'response'
p122
g57
(S's\x0b\x18\x00\x00<div><table><tr><td style="font-weight:bold;vertical-align:top;">body</td><td style="vertical-align:top;">:</td><td><div>&lt;cStringIO.StringO object at 0x7fb407062bc8&gt;</div></td></tr><tr><td style="font-weight:bold;vertical-align:top;">cookies</td><td style="vertical-align:top;">:</td><td><div><table><tr><td style="font-weight:bold;vertical-align:top;">session_id_pydoctor</td><td style="vertical-align:top;">:</td><td><div>127.0.0.1-5b40538b-5d3a-4409-9542-f15a4682b249<table><tr><td style="font-weight:bold;vertical-align:top;">comment</td><td style="vertical-align:top;">:</td><td><div></div></td></tr><tr><td style="font-weight:bold;vertical-align:top;">domain</td><td style="vertical-align:top;">:</td><td><div></div></td></tr><tr><td style="font-weight:bold;vertical-align:top;">expires</td><td style="vertical-align:top;">:</td><td><div></div></td></tr><tr><td style="font-weight:bold;vertical-align:top;">httponly</td><td style="vertical-align:top;">:</td><td><div></div></td></tr><tr><td style="font-weight:bold;vertical-align:top;">max-age</td><td style="vertical-align:top;">:</td><td><div></div></td></tr><tr><td style="font-weight:bold;vertical-align:top;">path</td><td style="vertical-align:top;">:</td><td><div>/</div></td></tr><tr><td style="font-weight:bold;vertical-align:top;">secure</td><td style="vertical-align:top;">:</td><td><div></div></td></tr><tr><td style="font-weight:bold;vertical-align:top;">version</td><td style="vertical-align:top;">:</td><td><div></div></td></tr></table></div></td></tr></table></div></td></tr><tr><td style="font-weight:bold;vertical-align:top;">delimiters</td><td style="vertical-align:top;">:</td><td><div><table><tr><td><div>{{</div></td></tr><tr><td><div>}}</div></td></tr></table></div></td></tr><tr><td style="font-weight:bold;vertical-align:top;">files</td><td style="vertical-align:top;">:</td><td><div><table></table></div></td></tr><tr><td style="font-weight:bold;vertical-align:top;">flash</td><td style="vertical-align:top;">:</td><td><div></div></td></tr><tr><td style="font-weight:bold;vertical-align:top;">form_label_separator</td><td style="vertical-align:top;">:</td><td><div></div></td></tr><tr><td style="font-weight:bold;vertical-align:top;">formstyle</td><td style="vertical-align:top;">:</td><td><div>bootstrap3_inline</div></td></tr><tr><td style="font-weight:bold;vertical-align:top;">generic_patterns</td><td style="vertical-align:top;">:</td><td><div><table><tr><td><div>*</div></td></tr></table></div></td></tr><tr><td style="font-weight:bold;vertical-align:top;">headers</td><td style="vertical-align:top;">:</td><td><div><table><tr><td style="font-weight:bold;vertical-align:top;">X-Powered-By</td><td style="vertical-align:top;">:</td><td><div>web2py</div></td></tr></table></div></td></tr><tr><td style="font-weight:bold;vertical-align:top;">menu</td><td style="vertical-align:top;">:</td><td><div><table></table></div></td></tr><tr><td style="font-weight:bold;vertical-align:top;">meta</td><td style="vertical-align:top;">:</td><td><div><table></table></div></td></tr><tr><td style="font-weight:bold;vertical-align:top;">models_to_run</td><td style="vertical-align:top;">:</td><td><div><table><tr><td><div>^\\w+\\.py$</div></td></tr><tr><td><div>^default/\\w+\\.py$</div></td></tr><tr><td><div>^default/admin_personas/\\w+\\.py$</div></td></tr></table></div></td></tr><tr><td style="font-weight:bold;vertical-align:top;">postprocessing</td><td style="vertical-align:top;">:</td><td><div><table></table></div></td></tr><tr><td style="font-weight:bold;vertical-align:top;">session_client</td><td style="vertical-align:top;">:</td><td><div>127.0.0.1</div></td></tr><tr><td style="font-weight:bold;vertical-align:top;">session_cookie_compression_level</td><td style="vertical-align:top;">:</td><td><div>None</div></td></tr><tr><td style="font-weight:bold;vertical-align:top;">session_cookie_expires</td><td style="vertical-align:top;">:</td><td><div>None</div></td></tr><tr><td style="font-weight:bold;vertical-align:top;">session_cookie_key</td><td style="vertical-align:top;">:</td><td><div>None</div></td></tr><tr><td style="font-weight:bold;vertical-align:top;">session_data_name</td><td style="vertical-align:top;">:</td><td><div>session_data_pydoctor</div></td></tr><tr><td style="font-weight:bold;vertical-align:top;">session_file</td><td style="vertical-align:top;">:</td><td><div>&lt;open file &#x27;/home/marian/web2py/applications/PyDoctor/sessions/15d/096/127.0.0.1-5b40538b-5d3a-4409-9542-f15a4682b249&#x27;, mode &#x27;rb+&#x27; at 0x7fb405b88c90&gt;</div></td></tr><tr><td style="font-weight:bold;vertical-align:top;">session_filename</td><td style="vertical-align:top;">:</td><td><div>/home/marian/web2py/applications/PyDoctor/sessions/127.0.0.1-5b40538b-5d3a-4409-9542-f15a4682b249</div></td></tr><tr><td style="font-weight:bold;vertical-align:top;">session_hash</td><td style="vertical-align:top;">:</td><td><div>c94453e75d29b71073436bdf4f506182</div></td></tr><tr><td style="font-weight:bold;vertical-align:top;">session_id</td><td style="vertical-align:top;">:</td><td><div>127.0.0.1-5b40538b-5d3a-4409-9542-f15a4682b249</div></td></tr><tr><td style="font-weight:bold;vertical-align:top;">session_id_name</td><td style="vertical-align:top;">:</td><td><div>session_id_pydoctor</div></td></tr><tr><td style="font-weight:bold;vertical-align:top;">session_locked</td><td style="vertical-align:top;">:</td><td><div>True</div></td></tr><tr><td style="font-weight:bold;vertical-align:top;">session_masterapp</td><td style="vertical-align:top;">:</td><td><div>PyDoctor</div></td></tr><tr><td style="font-weight:bold;vertical-align:top;">session_new</td><td style="vertical-align:top;">:</td><td><div>False</div></td></tr><tr><td style="font-weight:bold;vertical-align:top;">session_storage_type</td><td style="vertical-align:top;">:</td><td><div>file</div></td></tr><tr><td style="font-weight:bold;vertical-align:top;">status</td><td style="vertical-align:top;">:</td><td><div>200</div></td></tr><tr><td style="font-weight:bold;vertical-align:top;">view</td><td style="vertical-align:top;">:</td><td><div>default/admin_personas.html</div></td></tr></table></div>'
tRp123
sS'locals'
p124
(dp125
S'Service'
p126
S"<class 'gluon.tools.Service'>"
p127
sS'OBJECT'
p128
S"<class 'gluon.html.OBJECT'>"
p129
sS'SQLDB'
p130
S"<class 'pydal.base.DAL'>"
p131
sg116
S"<Storage {'last_query': 'db.parte.id>0', '_auth_...gin]': ['896e2b30-ccb5-4629-8c02-7a2b500ae96e']}>"
p132
sS'LINK'
p133
S"<class 'gluon.html.LINK'>"
p134
sS'BR'
p135
S"<class 'gluon.html.BR'>"
p136
sS'local_import'
p137
S'<function <lambda>>'
p138
sS'OPTGROUP'
p139
S"<class 'gluon.html.OPTGROUP'>"
p140
sS'LI'
p141
S"<class 'gluon.html.LI'>"
p142
sS'PRE'
p143
S"<class 'gluon.html.PRE'>"
p144
sS'IS_INT_IN_RANGE'
p145
S"<class 'gluon.validators.IS_INT_IN_RANGE'>"
p146
sS'IS_LOWER'
p147
S"<class 'gluon.validators.IS_LOWER'>"
p148
sS'IS_STRONG'
p149
S"<class 'gluon.validators.IS_STRONG'>"
p150
sS'Recaptcha'
p151
S"<class 'gluon.tools.Recaptcha'>"
p152
sS'cache'
p153
S'<gluon.cache.Cache object>'
p154
sS'IS_IN_DB'
p155
S"<class 'gluon.validators.IS_IN_DB'>"
p156
sS'TAG'
p157
S'<gluon.html.__TAG__ object>'
p158
sS'SQLField'
p159
S"<class 'pydal.objects.Field'>"
p160
sS'mail'
p161
S'<gluon.tools.Mail object>'
p162
sS'BODY'
p163
S"<class 'gluon.html.BODY'>"
p164
sS'IS_DATE_IN_RANGE'
p165
S"<class 'gluon.validators.IS_DATE_IN_RANGE'>"
p166
sS'TH'
p167
S"<class 'gluon.html.TH'>"
p168
sS'URL'
p169
S'<function URL>'
p170
sS'__file__'
p171
S"'/home/marian/web2py/applications/PyDoctor/models/db_pydoctor.py'"
p172
sS'db'
p173
S'<DAL uri="sqlite://storage2.sqlite">'
p174
sS'auth'
p175
S'<gluon.tools.Auth object>'
p176
sS'P'
S"<class 'gluon.html.P'>"
p177
sS'TFOOT'
p178
S"<class 'gluon.html.TFOOT'>"
p179
sS'XHTML'
p180
S"<class 'gluon.html.XHTML'>"
p181
sS'ON'
p182
S'True'
p183
sS'OL'
p184
S"<class 'gluon.html.OL'>"
p185
sS'TEXTAREA'
p186
S"<class 'gluon.html.TEXTAREA'>"
p187
sS'MENU'
p188
S"<class 'gluon.html.MENU'>"
p189
sS'html2text'
p190
S"<module 'applications.PyDoctor.modules.html2text...om 'applications/PyDoctor/modules/html2text.pyc'>"
p191
sS'reverse_geocode'
p192
S'<function reverse_geocode>'
p193
sS'LOAD'
p194
S'<function LOAD>'
p195
sS'CODE'
p196
S"<class 'gluon.html.CODE'>"
p197
sS'HTTP'
p198
S"<class 'gluon.http.HTTP'>"
p199
sS'HR'
p200
S"<class 'gluon.html.HR'>"
p201
sS'IS_DATETIME'
p202
S"<class 'gluon.validators.IS_DATETIME'>"
p203
sS'HEAD'
p204
S"<class 'gluon.html.HEAD'>"
p205
sS'LABEL'
p206
S"<class 'gluon.html.LABEL'>"
p207
sS'CLEANUP'
p208
S"<class 'gluon.validators.CLEANUP'>"
p209
sS'plugins'
p210
S'<gluon.tools.PluginManager object>'
p211
sS'BUTTON'
p212
S"<class 'gluon.html.BUTTON'>"
p213
sS'SELECT'
p214
S"<class 'gluon.html.SELECT'>"
p215
sS'CENTER'
p216
S"<class 'gluon.html.CENTER'>"
p217
sS'prettydate'
p218
S'<function prettydate>'
p219
sS'Crud'
p220
S"<class 'gluon.tools.Crud'>"
p221
sS'Auth'
p222
S"<class 'gluon.tools.Auth'>"
p223
sS'__builtins__'
p224
S"{'ArithmeticError': <type 'exceptions.ArithmeticError'>, 'AssertionError': <type 'exceptions.AssertionError'>, 'AttributeError': <type 'exceptions.AttributeError'>, 'BaseException': <type 'exceptions.BaseException'>, 'BufferError': <type 'exceptions.BufferError'>, 'BytesWarning': <type 'exceptions.BytesWarning'>, 'DeprecationWarning': <type 'exceptions.DeprecationWarning'>, 'EOFError': <type 'exceptions.EOFError'>, 'Ellipsis': Ellipsis, 'EnvironmentError': <type 'exceptions.EnvironmentError'>, ...}"
p225
sS'HTML'
p226
S"<class 'gluon.html.HTML'>"
p227
sS'SQLFORM'
p228
S"<class 'gluon.sqlhtml.SQLFORM'>"
p229
sS'EM'
p230
S"<class 'gluon.html.EM'>"
p231
sS'redirect'
p232
S'<function redirect>'
p233
sS'FIELDSET'
p234
S"<class 'gluon.html.FIELDSET'>"
p235
sS'IS_EQUAL_TO'
p236
S"<class 'gluon.validators.IS_EQUAL_TO'>"
p237
sS'myconf'
p238
S"{'forms': {'formstyle': 'bootstrap3_inline', 'se...'you@gmail.com', 'server': 'smtp.gmail.com:587'}}"
p239
sS'embed64'
p240
S'<function embed64>'
p241
sS'IS_LIST_OF'
p242
S"<class 'gluon.validators.IS_LIST_OF'>"
p243
sS'__name__'
p244
S"'__restricted__'"
p245
sS'EMBED'
p246
S"<class 'gluon.html.EMBED'>"
p247
sS'FORM'
p248
S"<class 'gluon.html.FORM'>"
p249
sS'img'
p250
S'<gluon.html.IMG object>'
p251
sS'H2'
p252
S"<class 'gluon.html.H2'>"
p253
sS'H3'
p254
S"<class 'gluon.html.H3'>"
p255
sS'AppConfig'
p256
S'<function AppConfig>'
p257
sS'H1'
p258
S"<class 'gluon.html.H1'>"
p259
sS'H6'
p260
S"<class 'gluon.html.H6'>"
p261
sS'H4'
p262
S"<class 'gluon.html.H4'>"
p263
sS'anchor'
p264
S'<gluon.html.A object>'
p265
sS'UL'
p266
S"<class 'gluon.html.UL'>"
p267
sS'IS_UPPER'
p268
S"<class 'gluon.validators.IS_UPPER'>"
p269
sS'xmlescape'
p270
S'<function xmlescape>'
p271
sS'IS_TIME'
p272
S"<class 'gluon.validators.IS_TIME'>"
p273
sS'markdown'
p274
S'<function markdown>'
p275
sS'OPTION'
p276
S"<class 'gluon.html.OPTION'>"
p277
sS'TITLE'
p278
S"<class 'gluon.html.TITLE'>"
p279
sS'CRYPT'
p280
S"<class 'gluon.validators.CRYPT'>"
p281
sS'IS_EMPTY_OR'
p282
S"<class 'gluon.validators.IS_EMPTY_OR'>"
p283
sS'MARKMIN'
p284
S"<class 'gluon.html.MARKMIN'>"
p285
sS'Recaptcha2'
p286
S"<class 'gluon.tools.Recaptcha2'>"
p287
sS'INPUT'
p288
S"<class 'gluon.html.INPUT'>"
p289
sS'STRONG'
p290
S"<class 'gluon.html.STRONG'>"
p291
sS'COL'
p292
S"<class 'gluon.html.COL'>"
p293
sS'service'
p294
S'<gluon.tools.Service object>'
p295
sS'SCRIPT'
p296
S"<class 'gluon.html.SCRIPT'>"
p297
sS'geocode'
p298
S'<function geocode>'
p299
sS'TABLE'
p300
S"<class 'gluon.html.TABLE'>"
p301
sS'IS_IPV4'
p302
S"<class 'gluon.validators.IS_IPV4'>"
p303
sS'IS_LENGTH'
p304
S"<class 'gluon.validators.IS_LENGTH'>"
p305
sS'IS_IPV6'
p306
S"<class 'gluon.validators.IS_IPV6'>"
p307
sS'XML'
p308
S"<class 'gluon.html.XML'>"
p309
sS'ANY_OF'
p310
S"<class 'gluon.validators.ANY_OF'>"
p311
sS'B'
S"<class 'gluon.html.B'>"
p312
sS'IMG'
p313
S"<class 'gluon.html.IMG'>"
p314
sS'SQLTABLE'
p315
S"<class 'gluon.sqlhtml.SQLTABLE'>"
p316
sS'IS_MATCH'
p317
S"<class 'gluon.validators.IS_MATCH'>"
p318
sS'IS_ALPHANUMERIC'
p319
S"<class 'gluon.validators.IS_ALPHANUMERIC'>"
p320
sS'info'
p321
S'<function info>'
p322
sS'SPAN'
p323
S"<class 'gluon.html.SPAN'>"
p324
sS'IS_JSON'
p325
S"<class 'gluon.validators.IS_JSON'>"
p326
sS'IS_IPADDRESS'
p327
S"<class 'gluon.validators.IS_IPADDRESS'>"
p328
sS'IS_SLUG'
p329
S"<class 'gluon.validators.IS_SLUG'>"
p330
sS'BEAUTIFY'
p331
S"<class 'gluon.html.BEAUTIFY'>"
p332
sS'META'
p333
S"<class 'gluon.html.META'>"
p334
sS'advanced_repr'
p335
S'<function advanced_repr>'
p336
sS'fetch'
p337
S'<function fetch>'
p338
sS'IS_DATE'
p339
S"<class 'gluon.validators.IS_DATE'>"
p340
sS'IS_EMAIL'
p341
S"<class 'gluon.validators.IS_EMAIL'>"
p342
sS'IS_NOT_EMPTY'
p343
S"<class 'gluon.validators.IS_NOT_EMPTY'>"
p344
sS'IS_FLOAT_IN_RANGE'
p345
S"<class 'gluon.validators.IS_FLOAT_IN_RANGE'>"
p346
sS'TBODY'
p347
S"<class 'gluon.html.TBODY'>"
p348
sS'CAT'
p349
S"<class 'gluon.html.CAT'>"
p350
sS'Field'
p351
S"<class 'pydal.objects.Field'>"
p352
sS'IS_LIST_OF_EMAILS'
p353
S"<class 'gluon.validators.IS_LIST_OF_EMAILS'>"
p354
sS'Mail'
p355
S"<class 'gluon.tools.Mail'>"
p356
sS'DIV'
p357
S"<class 'gluon.html.DIV'>"
p358
sS'H5'
p359
S"<class 'gluon.html.H5'>"
p360
sS'LEGEND'
p361
S"<class 'gluon.html.LEGEND'>"
p362
sS'COLGROUP'
p363
S"<class 'gluon.html.COLGROUP'>"
p364
sS'DAL'
p365
S"<class 'pydal.base.DAL'>"
p366
sS'ASSIGNJS'
p367
S'<function ASSIGNJS>'
p368
sS'TR'
p369
S"<class 'gluon.html.TR'>"
p370
sS'__package__'
p371
S'None'
p372
sS'IFRAME'
p373
S"<class 'gluon.html.IFRAME'>"
p374
sS'TD'
p375
S"<class 'gluon.html.TD'>"
p376
sS'PluginManager'
p377
S"<class 'gluon.tools.PluginManager'>"
p378
sS'IS_URL'
p379
S"<class 'gluon.validators.IS_URL'>"
p380
sS'A'
S"<class 'gluon.html.A'>"
p381
sS'STYLE'
p382
S"<class 'gluon.html.STYLE'>"
p383
sS'IS_DATETIME_IN_RANGE'
p384
S"<class 'gluon.validators.IS_DATETIME_IN_RANGE'>"
p385
sS'IS_IMAGE'
p386
S"<class 'gluon.validators.IS_IMAGE'>"
p387
sS'I'
S"<class 'gluon.html.I'>"
p388
sS'crud'
p389
S'<gluon.tools.Crud object>'
p390
sS'IS_NOT_IN_DB'
p391
S"<class 'gluon.validators.IS_NOT_IN_DB'>"
p392
sg122
S"<Storage {'body': <cStringIO.StringO object at 0...59048c0>, 'view': 'default/admin_personas.html'}>"
p393
sS'THEAD'
p394
S"<class 'gluon.html.THEAD'>"
p395
sS'Wiki'
p396
S"<class 'gluon.tools.Wiki'>"
p397
sS'advanced_editor'
p398
S'<function advanced_editor>'
p399
sS'IS_NULL_OR'
p400
S"<class 'gluon.validators.IS_EMPTY_OR'>"
p401
sg56
S"<Storage {'_vars': None, 'function': 'admin_pers...': '/home/marian/web2py/applications/PyDoctor/'}>"
p402
sS'IS_EXPR'
p403
S"<class 'gluon.validators.IS_EXPR'>"
p404
sS'IS_IN_SET'
p405
S"<class 'gluon.validators.IS_IN_SET'>"
p406
sS'IS_UPLOAD_FILENAME'
p407
S"<class 'gluon.validators.IS_UPLOAD_FILENAME'>"
p408
sS'IS_DECIMAL_IN_RANGE'
p409
S"<class 'gluon.validators.IS_DECIMAL_IN_RANGE'>"
p410
sS'TT'
p411
S"<class 'gluon.html.TT'>"
p412
sS'expte_format'
p413
S'<gluon.html.CAT object>'
p414
sS'T'
S'<gluon.languages.translator object>'
p415
sssS'traceback'
p416
S'Traceback (most recent call last):\n  File "/home/marian/web2py/gluon/restricted.py", line 227, in restricted\n    exec ccode in environment\n  File "/home/marian/web2py/applications/PyDoctor/models/db_pydoctor.py", line 88, in <module>\n    Field(\'numero\',length=40,requires = IS_NOT_IN_DB(db, \'expediente.numero\'),label=T(\'N\xc2\xba\'),represent=exp_titulo),\nNameError: name \'exp_titulo\' is not defined\n'
p417
s.