(dp1
S'output'
p2
S"<type 'exceptions.NameError'> global name 'p' is not defined"
p3
sS'layer'
p4
S'/home/marian/web2py/applications/PyDoctor/controllers/default.py'
p5
sS'code'
p6
S'# -*- coding: utf-8 -*-\n# this file is released under public domain and you can use without limitations\n__author__=u"Mar\xc3\xada Andrea Vignau <mavignau@gmail.com>"\n#########################################################################\n## This is a sample controller\n## - index is the default action of any application\n## - user is required for authentication and authorization\n## - download is for downloading files uploaded in the db (does streaming)\n#########################################################################\n\n\'\'\'export=dict(csv_with_hidden_cols=(ExporterCSV, \'CSV (columnas ocultas)\'),\ncsv=(ExporterCSV, \'CSV\'),\nxml=(ExporterXML, \'XML\'),\nhtml=(ExporterHTML, \'HTML\'),\ntsv_with_hidden_cols=(ExporterTSV, \'TSV (Compatible con Excel, columnas ocultas)\'),\ntsv=(ExporterTSV, \'TSV (Compatible con excel)\'))\'\'\'\n\nmyexport=dict(csv_with_hidden_cols=False,\n            csv=False,\n            xml=False,\n            html=False,\n            tsv_with_hidden_cols=False,\n            tsv=False,\n            json=False)\n\n\ndef index():\n    """\n    example action using the internationalization operator T and flash\n    rendered by views/default/index.html or views/generic.html\n\n    if you need a simple wiki simply replace the two lines below with:\n    return auth.wiki()\n    """\n    response.flash = T("Bienvenido a pyDoctor")\n    response.title = T("pyDoctor")\n    content=T(u\'Sistema para abogados y estudios jur\xc3\xaddicos\')\n    modules=None\n    features=None\n    if auth.user:\n        message=T("Bienvenido a pyDoctor, %s %s")%(auth.user.first_name,auth.user.last_name)\n        modules=[{\'url\':URL(\'default\',\'admin_expedientes\'),\'img\':\'expedientes.png\',\'alt\':T(\'Administraci\xc3\xb3n de expedientes\')},\n                 {\'url\':URL(\'default\',\'calendar\'),\'img\':\'calendario.png\',\'alt\':T(\'Calendario de vencimientos\')},\n                 {\'url\':URL(\'default\',\'admin_personas\'),\'img\':\'personas.png\',\'alt\':T(\'Contactos\')},\n                 {\'url\':URL(\'default\',\'admin_juzgados\'),\'img\':\'juzgados.png\',\'alt\':T(\'Oficinas judiciales\')}\n        ]\n    else:\n        message=T(\'\xc2\xa1Bienvenido! Pru\xc3\xa9belo ya mismo.\')\n        features=[{\'img\':\'feature-easy.png\',\'alt\':T(\'Intuitivo y muy f\xc3\xa1cil de usar, Ud. est\xc3\xa1ra trabajando en sus expedientes inmediatamente. \')},\n                 {\'img\':\'feature-responsive.png\',\'alt\':T(\'Acceso total desde cualquier parte con conexi\xc3\xb3n Internet. Podr\xc3\xa1 acceder desde todos sus dispositivos, computadoras o m\xc3\xb3viles\')},\n                 {\'img\':\'feature-secure.png\',\'alt\':T(\'Tendr\xc3\xa1 sus datos en la seguridad absoluta de nuestros servidores. \xc2\xa1Olv\xc3\xaddese de las copias de seguridad!\')},\n                 {\'img\':\'feature-fast.png\',\'alt\':T(\'R\xc3\xa1pido de usar y veloz para empezar. Ah\xc3\xb3rrese el tiempo para instalar y configurar su software. \xc3\x9aselo ya mismo\')}\n        ]\n    return dict(message=message,modules=modules,features=features)\n\n@auth.requires_login()\ndef agenda():\n    maxtextlengths={\'db.agenda.vencimiento\':15,\n            \'db.agenda.titulo\':60,\n            \'db.agenda.texto\':70}\n    grid = SQLFORM.grid(db.agenda.created_by==auth.user.id,\n                        fields=[db.agenda.vencimiento,db.agenda.titulo,db.agenda.texto,db.agenda.estado,db.agenda.prioridad],\n                        headers={\'db.agenda.vencimiento\':\'Vence el\',\n                            \'db.agenda.titulo\':\'Titulo\',\n                            \'db.agenda.texto\':\'Descripcion\',\n                            \'db.agenda.estado\':\'E\',\n                            \'db.agenda.prioridad\':\'P\'},\n                        maxtextlengths=maxtextlengths,maxtextlength=70,\n                        user_signature=False,exportclasses=myexport)\n    return locals()\n\n@auth.requires_login()\ndef calendar():\n    rows=db(db.agenda.created_by==auth.user.id).select()\n    return dict(rows=rows)\n\n@auth.requires_login()\ndef agenda_edit():\n    record = db.agenda(request.args(0,cast=int)) or redirect(URL(\'calendario\'))\n    expte= crud.read(db.expediente,record.expediente_id)\n    form = SQLFORM(db.agenda,record).process()\n    return locals()\n\n\n@auth.requires_login()\ndef admin_expedientes():\n    maxtextlengths={\'db.expediente.numero\' : 15,\n             \'db.expediente.caratula\':60,\n             \'db.expediente.juzgado_id\':45,\n            \'db.movimiento.titulo\':60,\n            \'db.movimiento.texto\':70,\n            \'db.movimiento.estado\':5,\n            \'db.agenda.vencimiento\':15,\n            \'db.agenda.titulo\':60,\n            \'db.parte.persona_id\':50,\n            \'db.parte.caracter\':30}\n    ar = request.args # save typing\n    vv = request.vars.lang\n    expte=\'\'\n    linked_tables=[\'movimiento\',\'agenda\',\'parte\']\n    if ar and len(ar)>2:\n        if \'expediente_id\' in ar[1]:\n            #expte= crud.read(db.expediente, ar[2])\n            expte= SQLFORM(db.expediente, ar[2], readonly=True)\n            links=[]\n            for k in linked_tables:\n                args=[\'expediente\',\'%s.expediente_id\'%k,ar[2]]\n                url=URL(\'admin_expedientes\',args=args, user_signature=True)\n                text=SPAN(k.capitalize()+\'s\',_class=\'buttontext button\')\n                links.append(A(text,_href=url,_class=\'class="btn btn-default\'))\n        if len(ar)>4 and ar[4]=="parte":\n            response.flash=\'Es una parte\'\n    grid = SQLFORM.smartgrid(db.expediente,\n                             fields=[db.expediente.numero,\n                                     db.expediente.caratula,\n                                     db.expediente.juzgado_id,\n                                    db.movimiento.estado,\n                                    db.movimiento.titulo,\n                                    db.movimiento.texto,\n                                    db.agenda.estado,db.agenda.prioridad,\n                                    db.agenda.vencimiento,\n                                    db.agenda.titulo,\n                                    db.parte.persona_id,\n                                    db.parte.caracter],\n                             constraints={\'expediente\':(db.expediente.created_by==auth.user.id)},\n                             linked_tables=[\'movimiento\',\'agenda\',\'parte\'],\n                            buttons_placement = \'right\',\n                            exportclasses=myexport,\n                             maxtextlength=100,\n                            maxtextlengths=maxtextlengths)\n    #dd=info(grid)\n    return locals()\n\n\n@auth.requires_login()\ndef admin_juzgados():\n    db.juzgado.fuero_id.widget._class=\'form-control string\'\n    grid = SQLFORM.grid(db.juzgado,user_signature=False,maxtextlength=50,exportclasses=myexport)\n    return locals()\n\n@auth.requires_login()\ndef admin_personas():\n    grid = SQLFORM.grid(db.persona.created_by==auth.user.id,\n                        user_signature=False,\n                        maxtextlength=50,\n                        exportclasses=myexport)\n    return locals()\n\n@auth.requires_login()\ndef fueros():\n    grid = SQLFORM.grid(db.fuero,maxtextlength=50,exportclasses=myexport)\n    return locals()\n\n@auth.requires_login()\ndef instancias():\n    grid = SQLFORM.grid(db.instancia,maxtextlength=50,exportclasses=myexport)\n    return locals()\n\ndef user():\n    """\n    exposes:\n    http://..../[app]/default/user/login\n    http://..../[app]/default/user/logout\n    http://..../[app]/default/user/register\n    http://..../[app]/default/user/profile\n    http://..../[app]/default/user/retrieve_password\n    http://..../[app]/default/user/change_password\n    http://..../[app]/default/user/bulk_register\n    use @auth.requires_login()\n        @auth.requires_membership(\'group name\')\n        @auth.requires_permission(\'read\',\'table name\',record_id)\n    to decorate functions that need access control\n    also notice there is http://..../[app]/appadmin/manage/auth to allow administrator to manage users\n    """\n    return dict(form=auth())\n\nresponse._vars=response._caller(agenda)\n'
p7
sS'snapshot'
p8
(dp9
S'exception'
p10
(dp11
S'__hash__'
p12
S"<method-wrapper '__hash__' of exceptions.NameError object>"
p13
sS'__setattr__'
p14
S"<method-wrapper '__setattr__' of exceptions.NameError object>"
p15
sS'__reduce_ex__'
p16
S'<built-in method __reduce_ex__ of exceptions.NameError object>'
p17
sS'__getslice__'
p18
S"<method-wrapper '__getslice__' of exceptions.NameError object>"
p19
sS'__getitem__'
p20
S"<method-wrapper '__getitem__' of exceptions.NameError object>"
p21
sS'__setstate__'
p22
S'<built-in method __setstate__ of exceptions.NameError object>'
p23
sS'args'
p24
S'("global name \'p\' is not defined",)'
p25
sS'__reduce__'
p26
S'<built-in method __reduce__ of exceptions.NameError object>'
p27
sS'__str__'
p28
S"<method-wrapper '__str__' of exceptions.NameError object>"
p29
sS'__format__'
p30
S'<built-in method __format__ of exceptions.NameError object>'
p31
sS'__getattribute__'
p32
S"<method-wrapper '__getattribute__' of exceptions.NameError object>"
p33
sS'__class__'
p34
S"<type 'exceptions.NameError'>"
p35
sS'__unicode__'
p36
S'<built-in method __unicode__ of exceptions.NameError object>'
p37
sS'__delattr__'
p38
S"<method-wrapper '__delattr__' of exceptions.NameError object>"
p39
sS'__subclasshook__'
p40
S'<built-in method __subclasshook__ of type object>'
p41
sS'__repr__'
p42
S"<method-wrapper '__repr__' of exceptions.NameError object>"
p43
sS'__dict__'
p44
S'{}'
p45
sS'__sizeof__'
p46
S'<built-in method __sizeof__ of exceptions.NameError object>'
p47
sS'__doc__'
p48
S"'Name not found globally.'"
p49
sS'__init__'
p50
S"<method-wrapper '__init__' of exceptions.NameError object>"
p51
sS'__new__'
p52
S'<built-in method __new__ of type object>'
p53
ssS'evalue'
p54
S"global name 'p' is not defined"
p55
sS'request'
p56
cgluon.html
XML_unpickle
p57
(S'sS\\\x00\x00<div><table><tr><td style="font-weight:bold;vertical-align:top;">ajax</td><td style="vertical-align:top;">:</td><td><div>False</div></td></tr><tr><td style="font-weight:bold;vertical-align:top;">application</td><td style="vertical-align:top;">:</td><td><div>PyDoctor</div></td></tr><tr><td style="font-weight:bold;vertical-align:top;">args</td><td style="vertical-align:top;">:</td><td><div><table></table></div></td></tr><tr><td style="font-weight:bold;vertical-align:top;">cid</td><td style="vertical-align:top;">:</td><td><div>None</div></td></tr><tr><td style="font-weight:bold;vertical-align:top;">client</td><td style="vertical-align:top;">:</td><td><div>127.0.0.1</div></td></tr><tr><td style="font-weight:bold;vertical-align:top;">controller</td><td style="vertical-align:top;">:</td><td><div>default</div></td></tr><tr><td style="font-weight:bold;vertical-align:top;">cookies</td><td style="vertical-align:top;">:</td><td><div><table><tr><td style="font-weight:bold;vertical-align:top;">session_id_admin</td><td style="vertical-align:top;">:</td><td><div>127.0.0.1-aa9a37b6-5398-4952-85b7-cefb941e4789<table><tr><td style="font-weight:bold;vertical-align:top;">comment</td><td style="vertical-align:top;">:</td><td><div></div></td></tr><tr><td style="font-weight:bold;vertical-align:top;">domain</td><td style="vertical-align:top;">:</td><td><div></div></td></tr><tr><td style="font-weight:bold;vertical-align:top;">expires</td><td style="vertical-align:top;">:</td><td><div></div></td></tr><tr><td style="font-weight:bold;vertical-align:top;">httponly</td><td style="vertical-align:top;">:</td><td><div></div></td></tr><tr><td style="font-weight:bold;vertical-align:top;">max-age</td><td style="vertical-align:top;">:</td><td><div></div></td></tr><tr><td style="font-weight:bold;vertical-align:top;">path</td><td style="vertical-align:top;">:</td><td><div></div></td></tr><tr><td style="font-weight:bold;vertical-align:top;">secure</td><td style="vertical-align:top;">:</td><td><div></div></td></tr><tr><td style="font-weight:bold;vertical-align:top;">version</td><td style="vertical-align:top;">:</td><td><div></div></td></tr></table></div></td></tr><tr><td style="font-weight:bold;vertical-align:top;">session_id_pydoctor</td><td style="vertical-align:top;">:</td><td><div>127.0.0.1-5b40538b-5d3a-4409-9542-f15a4682b249<table><tr><td style="font-weight:bold;vertical-align:top;">comment</td><td style="vertical-align:top;">:</td><td><div></div></td></tr><tr><td style="font-weight:bold;vertical-align:top;">domain</td><td style="vertical-align:top;">:</td><td><div></div></td></tr><tr><td style="font-weight:bold;vertical-align:top;">expires</td><td style="vertical-align:top;">:</td><td><div></div></td></tr><tr><td style="font-weight:bold;vertical-align:top;">httponly</td><td style="vertical-align:top;">:</td><td><div></div></td></tr><tr><td style="font-weight:bold;vertical-align:top;">max-age</td><td style="vertical-align:top;">:</td><td><div></div></td></tr><tr><td style="font-weight:bold;vertical-align:top;">path</td><td style="vertical-align:top;">:</td><td><div></div></td></tr><tr><td style="font-weight:bold;vertical-align:top;">secure</td><td style="vertical-align:top;">:</td><td><div></div></td></tr><tr><td style="font-weight:bold;vertical-align:top;">version</td><td style="vertical-align:top;">:</td><td><div></div></td></tr></table></div></td></tr><tr><td style="font-weight:bold;vertical-align:top;">session_id_welcome</td><td style="vertical-align:top;">:</td><td><div>127.0.0.1-88da6817-9ad7-485f-a9ff-f0383d6bb332<table><tr><td style="font-weight:bold;vertical-align:top;">comment</td><td style="vertical-align:top;">:</td><td><div></div></td></tr><tr><td style="font-weight:bold;vertical-align:top;">domain</td><td style="vertical-align:top;">:</td><td><div></div></td></tr><tr><td style="font-weight:bold;vertical-align:top;">expires</td><td style="vertical-align:top;">:</td><td><div></div></td></tr><tr><td style="font-weight:bold;vertical-align:top;">httponly</td><td style="vertical-align:top;">:</td><td><div></div></td></tr><tr><td style="font-weight:bold;vertical-align:top;">max-age</td><td style="vertical-align:top;">:</td><td><div></div></td></tr><tr><td style="font-weight:bold;vertical-align:top;">path</td><td style="vertical-align:top;">:</td><td><div></div></td></tr><tr><td style="font-weight:bold;vertical-align:top;">secure</td><td style="vertical-align:top;">:</td><td><div></div></td></tr><tr><td style="font-weight:bold;vertical-align:top;">version</td><td style="vertical-align:top;">:</td><td><div></div></td></tr></table></div></td></tr></table></div></td></tr><tr><td style="font-weight:bold;vertical-align:top;">env</td><td style="vertical-align:top;">:</td><td><div><table><tr><td style="font-weight:bold;vertical-align:top;">HTTP_ACCEPT</td><td style="vertical-align:top;">:</td><td><div>text/html,application/xhtml+xml,application/xml;q=0.9,*/*;q=0.8</div></td></tr><tr><td style="font-weight:bold;vertical-align:top;">HTTP_ACCEPT_ENCODING</td><td style="vertical-align:top;">:</td><td><div>gzip, deflate</div></td></tr><tr><td style="font-weight:bold;vertical-align:top;">HTTP_ACCEPT_LANGUAGE</td><td style="vertical-align:top;">:</td><td><div>en-US,en;q=0.5</div></td></tr><tr><td style="font-weight:bold;vertical-align:top;">HTTP_CACHE_CONTROL</td><td style="vertical-align:top;">:</td><td><div>max-age=0</div></td></tr><tr><td style="font-weight:bold;vertical-align:top;">HTTP_CONNECTION</td><td style="vertical-align:top;">:</td><td><div>keep-alive</div></td></tr><tr><td style="font-weight:bold;vertical-align:top;">HTTP_COOKIE</td><td style="vertical-align:top;">:</td><td><div>session_id_welcome=127.0.0.1-88da6817-9ad7-485f-a9ff-f0383d6bb332; session_id_admin=127.0.0.1-aa9a37b6-5398-4952-85b7-cefb941e4789; session_id_pydoctor=127.0.0.1-5b40538b-5d3a-4409-9542-f15a4682b249</div></td></tr><tr><td style="font-weight:bold;vertical-align:top;">HTTP_HOST</td><td style="vertical-align:top;">:</td><td><div>127.0.0.1:8000</div></td></tr><tr><td style="font-weight:bold;vertical-align:top;">HTTP_REFERER</td><td style="vertical-align:top;">:</td><td><div>http://127.0.0.1:8000/PyDoctor/default/admin_expedientes/expediente/parte.expediente_id/41?_signature=4a85751befb2f99b18439836cc9c25a3ab89faa0</div></td></tr><tr><td style="font-weight:bold;vertical-align:top;">HTTP_USER_AGENT</td><td style="vertical-align:top;">:</td><td><div>Mozilla/5.0 (X11; Ubuntu; Linux x86_64; rv:44.0) Gecko/20100101 Firefox/44.0</div></td></tr><tr><td style="font-weight:bold;vertical-align:top;">PATH_INFO</td><td style="vertical-align:top;">:</td><td><div>/PyDoctor/default/agenda</div></td></tr><tr><td style="font-weight:bold;vertical-align:top;">QUERY_STRING</td><td style="vertical-align:top;">:</td><td><div></div></td></tr><tr><td style="font-weight:bold;vertical-align:top;">REMOTE_ADDR</td><td style="vertical-align:top;">:</td><td><div>127.0.0.1</div></td></tr><tr><td style="font-weight:bold;vertical-align:top;">REMOTE_PORT</td><td style="vertical-align:top;">:</td><td><div>53430</div></td></tr><tr><td style="font-weight:bold;vertical-align:top;">REQUEST_METHOD</td><td style="vertical-align:top;">:</td><td><div>GET</div></td></tr><tr><td style="font-weight:bold;vertical-align:top;">SCRIPT_NAME</td><td style="vertical-align:top;">:</td><td><div></div></td></tr><tr><td style="font-weight:bold;vertical-align:top;">SERVER_NAME</td><td style="vertical-align:top;">:</td><td><div>marian-GA-MA770T-UD3</div></td></tr><tr><td style="font-weight:bold;vertical-align:top;">SERVER_PORT</td><td style="vertical-align:top;">:</td><td><div>8000</div></td></tr><tr><td style="font-weight:bold;vertical-align:top;">SERVER_PROTOCOL</td><td style="vertical-align:top;">:</td><td><div>HTTP/1.1</div></td></tr><tr><td style="font-weight:bold;vertical-align:top;">SERVER_SOFTWARE</td><td style="vertical-align:top;">:</td><td><div>Rocket 1.2.6</div></td></tr><tr><td style="font-weight:bold;vertical-align:top;">app_folders</td><td style="vertical-align:top;">:</td><td><div>set([&#x27;/home/marian/web2py/applications/welcome/&#x27;, &#x27;/home/marian/web2py/applications/PyDoctor/&#x27;, &#x27;/home/marian/web2py/applications/admin/&#x27;])</div></td></tr><tr><td style="font-weight:bold;vertical-align:top;">applications_parent</td><td style="vertical-align:top;">:</td><td><div>/home/marian/web2py</div></td></tr><tr><td style="font-weight:bold;vertical-align:top;">cmd_args</td><td style="vertical-align:top;">:</td><td><div><table></table></div></td></tr><tr><td style="font-weight:bold;vertical-align:top;">cmd_options</td><td style="vertical-align:top;">:</td><td><div>&lt;Values at 0x7fb44601cd40: {&#x27;verbose&#x27;: False, &#x27;ip&#x27;: &#x27;127.0.0.1&#x27;, &#x27;debuglevel&#x27;: 30, &#x27;with_scheduler&#x27;: False, &#x27;ips&#x27;: [&#x27;127.0.1.1&#x27;], &#x27;shutdown_timeout&#x27;: 5, &#x27;taskbar&#x27;: False, &#x27;with_coverage&#x27;: False, &#x27;scheduler_groups&#x27;: None, &#x27;port&#x27;: 8000, &#x27;maxthreads&#x27;: None, &#x27;softcron&#x27;: False, &#x27;server_name&#x27;: &#x27;marian-GA-MA770T-UD3&#x27;, &#x27;bpython&#x27;: False, &#x27;nogui&#x27;: False, &#x27;pid_filename&#x27;: &#x27;httpserver.pid&#x27;, &#x27;print_errors&#x27;: False, &#x27;extcron&#x27;: False, &#x27;runcron&#x27;: False, &#x27;run_system_tests&#x27;: False, &#x27;test&#x27;: None, &#x27;folder&#x27;: &#x27;/home/marian/web2py&#x27;, &#x27;config&#x27;: &#x27;&#x27;, &#x27;minthreads&#x27;: None, &#x27;shell&#x27;: None, &#x27;run&#x27;: &#x27;&#x27;, &#x27;log_filename&#x27;: &#x27;httpserver.log&#x27;, &#x27;profiler_dir&#x27;: None, &#x27;args&#x27;: [&#x27;&#x27;], &#x27;socket_timeout&#x27;: 5, &#x27;ssl_ca_certificate&#x27;: None, &#x27;scheduler&#x27;: None, &#x27;interfaces&#x27;: None, &#x27;ssl_private_key&#x27;: &#x27;&#x27;, &#x27;gae&#x27;: None, &#x27;password&#x27;: &#x27;&lt;ask&gt;&#x27;, &#x27;request_queue_size&#x27;: 5, &#x27;ssl_certificate&#x27;: &#x27;&#x27;, &#x27;cronjob&#x27;: False, &#x27;numthreads&#x27;: None, &#x27;quiet&#x27;: False, &#x27;import_models&#x27;: False, &#x27;timeout&#x27;: 10, &#x27;plain&#x27;: False, &#x27;nobanner&#x27;: False}&gt;</div></td></tr><tr><td style="font-weight:bold;vertical-align:top;">db_sessions</td><td style="vertical-align:top;">:</td><td><div>set([])</div></td></tr><tr><td style="font-weight:bold;vertical-align:top;">debugging</td><td style="vertical-align:top;">:</td><td><div>True</div></td></tr><tr><td style="font-weight:bold;vertical-align:top;">gluon_parent</td><td style="vertical-align:top;">:</td><td><div>/home/marian/web2py</div></td></tr><tr><td style="font-weight:bold;vertical-align:top;">http_accept</td><td style="vertical-align:top;">:</td><td><div>text/html,application/xhtml+xml,application/xml;q=0.9,*/*;q=0.8</div></td></tr><tr><td style="font-weight:bold;vertical-align:top;">http_accept_encoding</td><td style="vertical-align:top;">:</td><td><div>gzip, deflate</div></td></tr><tr><td style="font-weight:bold;vertical-align:top;">http_accept_language</td><td style="vertical-align:top;">:</td><td><div>en-US,en;q=0.5</div></td></tr><tr><td style="font-weight:bold;vertical-align:top;">http_cache_control</td><td style="vertical-align:top;">:</td><td><div>max-age=0</div></td></tr><tr><td style="font-weight:bold;vertical-align:top;">http_connection</td><td style="vertical-align:top;">:</td><td><div>keep-alive</div></td></tr><tr><td style="font-weight:bold;vertical-align:top;">http_cookie</td><td style="vertical-align:top;">:</td><td><div>session_id_welcome=127.0.0.1-88da6817-9ad7-485f-a9ff-f0383d6bb332; session_id_admin=127.0.0.1-aa9a37b6-5398-4952-85b7-cefb941e4789; session_id_pydoctor=127.0.0.1-5b40538b-5d3a-4409-9542-f15a4682b249</div></td></tr><tr><td style="font-weight:bold;vertical-align:top;">http_host</td><td style="vertical-align:top;">:</td><td><div>127.0.0.1:8000</div></td></tr><tr><td style="font-weight:bold;vertical-align:top;">http_referer</td><td style="vertical-align:top;">:</td><td><div>http://127.0.0.1:8000/PyDoctor/default/admin_expedientes/expediente/parte.expediente_id/41?_signature=4a85751befb2f99b18439836cc9c25a3ab89faa0</div></td></tr><tr><td style="font-weight:bold;vertical-align:top;">http_user_agent</td><td style="vertical-align:top;">:</td><td><div>Mozilla/5.0 (X11; Ubuntu; Linux x86_64; rv:44.0) Gecko/20100101 Firefox/44.0</div></td></tr><tr><td style="font-weight:bold;vertical-align:top;">is_jython</td><td style="vertical-align:top;">:</td><td><div>False</div></td></tr><tr><td style="font-weight:bold;vertical-align:top;">is_pypy</td><td style="vertical-align:top;">:</td><td><div>False</div></td></tr><tr><td style="font-weight:bold;vertical-align:top;">is_source</td><td style="vertical-align:top;">:</td><td><div>True</div></td></tr><tr><td style="font-weight:bold;vertical-align:top;">local_hosts</td><td style="vertical-align:top;">:</td><td><div><table><tr><td><div>::1</div></td></tr><tr><td><div>127.0.1.1</div></td></tr><tr><td><div>::ffff:127.0.0.1</div></td></tr><tr><td><div>127.0.0.1</div></td></tr><tr><td><div>marian-GA-MA770T-UD3</div></td></tr></table></div></td></tr><tr><td style="font-weight:bold;vertical-align:top;">path_info</td><td style="vertical-align:top;">:</td><td><div>/PyDoctor/default/agenda</div></td></tr><tr><td style="font-weight:bold;vertical-align:top;">query_string</td><td style="vertical-align:top;">:</td><td><div></div></td></tr><tr><td style="font-weight:bold;vertical-align:top;">remote_addr</td><td style="vertical-align:top;">:</td><td><div>127.0.0.1</div></td></tr><tr><td style="font-weight:bold;vertical-align:top;">remote_port</td><td style="vertical-align:top;">:</td><td><div>53430</div></td></tr><tr><td style="font-weight:bold;vertical-align:top;">request_method</td><td style="vertical-align:top;">:</td><td><div>GET</div></td></tr><tr><td style="font-weight:bold;vertical-align:top;">request_uri</td><td style="vertical-align:top;">:</td><td><div>/PyDoctor/default/agenda</div></td></tr><tr><td style="font-weight:bold;vertical-align:top;">script_name</td><td style="vertical-align:top;">:</td><td><div></div></td></tr><tr><td style="font-weight:bold;vertical-align:top;">server_name</td><td style="vertical-align:top;">:</td><td><div>marian-GA-MA770T-UD3</div></td></tr><tr><td style="font-weight:bold;vertical-align:top;">server_port</td><td style="vertical-align:top;">:</td><td><div>8000</div></td></tr><tr><td style="font-weight:bold;vertical-align:top;">server_protocol</td><td style="vertical-align:top;">:</td><td><div>HTTP/1.1</div></td></tr><tr><td style="font-weight:bold;vertical-align:top;">server_software</td><td style="vertical-align:top;">:</td><td><div>Rocket 1.2.6</div></td></tr><tr><td style="font-weight:bold;vertical-align:top;">web2py_path</td><td style="vertical-align:top;">:</td><td><div>/home/marian/web2py</div></td></tr><tr><td style="font-weight:bold;vertical-align:top;">web2py_version</td><td style="vertical-align:top;">:</td><td><div>2.13.3-stable+timestamp.2015.12.24.08.08.22</div></td></tr><tr><td style="font-weight:bold;vertical-align:top;">wsgi.errors</td><td style="vertical-align:top;">:</td><td><div>&lt;open file &#x27;&lt;stderr&gt;&#x27;, mode &#x27;w&#x27; at 0x7fb44d0591e0&gt;</div></td></tr><tr><td style="font-weight:bold;vertical-align:top;">wsgi.file_wrapper</td><td style="vertical-align:top;">:</td><td><div>&lt;class wsgiref.util.FileWrapper at 0x7fb44604a390&gt;</div></td></tr><tr><td style="font-weight:bold;vertical-align:top;">wsgi.input</td><td style="vertical-align:top;">:</td><td><div>&lt;socket._fileobject object at 0x7fb405db3d50&gt;</div></td></tr><tr><td style="font-weight:bold;vertical-align:top;">wsgi.multiprocess</td><td style="vertical-align:top;">:</td><td><div>False</div></td></tr><tr><td style="font-weight:bold;vertical-align:top;">wsgi.multithread</td><td style="vertical-align:top;">:</td><td><div>True</div></td></tr><tr><td style="font-weight:bold;vertical-align:top;">wsgi.run_once</td><td style="vertical-align:top;">:</td><td><div>False</div></td></tr><tr><td style="font-weight:bold;vertical-align:top;">wsgi.url_scheme</td><td style="vertical-align:top;">:</td><td><div>http</div></td></tr><tr><td style="font-weight:bold;vertical-align:top;">wsgi.version</td><td style="vertical-align:top;">:</td><td><div><table><tr><td><div>1</div></td></tr><tr><td><div>0</div></td></tr></table></div></td></tr><tr><td style="font-weight:bold;vertical-align:top;">wsgi_errors</td><td style="vertical-align:top;">:</td><td><div>&lt;open file &#x27;&lt;stderr&gt;&#x27;, mode &#x27;w&#x27; at 0x7fb44d0591e0&gt;</div></td></tr><tr><td style="font-weight:bold;vertical-align:top;">wsgi_file_wrapper</td><td style="vertical-align:top;">:</td><td><div>&lt;class wsgiref.util.FileWrapper at 0x7fb44604a390&gt;</div></td></tr><tr><td style="font-weight:bold;vertical-align:top;">wsgi_input</td><td style="vertical-align:top;">:</td><td><div>&lt;socket._fileobject object at 0x7fb405db3d50&gt;</div></td></tr><tr><td style="font-weight:bold;vertical-align:top;">wsgi_multiprocess</td><td style="vertical-align:top;">:</td><td><div>False</div></td></tr><tr><td style="font-weight:bold;vertical-align:top;">wsgi_multithread</td><td style="vertical-align:top;">:</td><td><div>True</div></td></tr><tr><td style="font-weight:bold;vertical-align:top;">wsgi_run_once</td><td style="vertical-align:top;">:</td><td><div>False</div></td></tr><tr><td style="font-weight:bold;vertical-align:top;">wsgi_url_scheme</td><td style="vertical-align:top;">:</td><td><div>http</div></td></tr><tr><td style="font-weight:bold;vertical-align:top;">wsgi_version</td><td style="vertical-align:top;">:</td><td><div><table><tr><td><div>1</div></td></tr><tr><td><div>0</div></td></tr></table></div></td></tr></table></div></td></tr><tr><td style="font-weight:bold;vertical-align:top;">extension</td><td style="vertical-align:top;">:</td><td><div>html</div></td></tr><tr><td style="font-weight:bold;vertical-align:top;">folder</td><td style="vertical-align:top;">:</td><td><div>/home/marian/web2py/applications/PyDoctor/</div></td></tr><tr><td style="font-weight:bold;vertical-align:top;">function</td><td style="vertical-align:top;">:</td><td><div>agenda</div></td></tr><tr><td style="font-weight:bold;vertical-align:top;">global_settings</td><td style="vertical-align:top;">:</td><td><div><table><tr><td style="font-weight:bold;vertical-align:top;">app_folders</td><td style="vertical-align:top;">:</td><td><div>set([&#x27;/home/marian/web2py/applications/welcome/&#x27;, &#x27;/home/marian/web2py/applications/PyDoctor/&#x27;, &#x27;/home/marian/web2py/applications/admin/&#x27;])</div></td></tr><tr><td style="font-weight:bold;vertical-align:top;">applications_parent</td><td style="vertical-align:top;">:</td><td><div>/home/marian/web2py</div></td></tr><tr><td style="font-weight:bold;vertical-align:top;">cmd_args</td><td style="vertical-align:top;">:</td><td><div><table></table></div></td></tr><tr><td style="font-weight:bold;vertical-align:top;">cmd_options</td><td style="vertical-align:top;">:</td><td><div>&lt;Values at 0x7fb44601cd40: {&#x27;verbose&#x27;: False, &#x27;ip&#x27;: &#x27;127.0.0.1&#x27;, &#x27;debuglevel&#x27;: 30, &#x27;with_scheduler&#x27;: False, &#x27;ips&#x27;: [&#x27;127.0.1.1&#x27;], &#x27;shutdown_timeout&#x27;: 5, &#x27;taskbar&#x27;: False, &#x27;with_coverage&#x27;: False, &#x27;scheduler_groups&#x27;: None, &#x27;port&#x27;: 8000, &#x27;maxthreads&#x27;: None, &#x27;softcron&#x27;: False, &#x27;server_name&#x27;: &#x27;marian-GA-MA770T-UD3&#x27;, &#x27;bpython&#x27;: False, &#x27;nogui&#x27;: False, &#x27;pid_filename&#x27;: &#x27;httpserver.pid&#x27;, &#x27;print_errors&#x27;: False, &#x27;extcron&#x27;: False, &#x27;runcron&#x27;: False, &#x27;run_system_tests&#x27;: False, &#x27;test&#x27;: None, &#x27;folder&#x27;: &#x27;/home/marian/web2py&#x27;, &#x27;config&#x27;: &#x27;&#x27;, &#x27;minthreads&#x27;: None, &#x27;shell&#x27;: None, &#x27;run&#x27;: &#x27;&#x27;, &#x27;log_filename&#x27;: &#x27;httpserver.log&#x27;, &#x27;profiler_dir&#x27;: None, &#x27;args&#x27;: [&#x27;&#x27;], &#x27;socket_timeout&#x27;: 5, &#x27;ssl_ca_certificate&#x27;: None, &#x27;scheduler&#x27;: None, &#x27;interfaces&#x27;: None, &#x27;ssl_private_key&#x27;: &#x27;&#x27;, &#x27;gae&#x27;: None, &#x27;password&#x27;: &#x27;&lt;ask&gt;&#x27;, &#x27;request_queue_size&#x27;: 5, &#x27;ssl_certificate&#x27;: &#x27;&#x27;, &#x27;cronjob&#x27;: False, &#x27;numthreads&#x27;: None, &#x27;quiet&#x27;: False, &#x27;import_models&#x27;: False, &#x27;timeout&#x27;: 10, &#x27;plain&#x27;: False, &#x27;nobanner&#x27;: False}&gt;</div></td></tr><tr><td style="font-weight:bold;vertical-align:top;">db_sessions</td><td style="vertical-align:top;">:</td><td><div>set([])</div></td></tr><tr><td style="font-weight:bold;vertical-align:top;">debugging</td><td style="vertical-align:top;">:</td><td><div>True</div></td></tr><tr><td style="font-weight:bold;vertical-align:top;">gluon_parent</td><td style="vertical-align:top;">:</td><td><div>/home/marian/web2py</div></td></tr><tr><td style="font-weight:bold;vertical-align:top;">is_jython</td><td style="vertical-align:top;">:</td><td><div>False</div></td></tr><tr><td style="font-weight:bold;vertical-align:top;">is_pypy</td><td style="vertical-align:top;">:</td><td><div>False</div></td></tr><tr><td style="font-weight:bold;vertical-align:top;">is_source</td><td style="vertical-align:top;">:</td><td><div>True</div></td></tr><tr><td style="font-weight:bold;vertical-align:top;">local_hosts</td><td style="vertical-align:top;">:</td><td><div><table><tr><td><div>::1</div></td></tr><tr><td><div>127.0.1.1</div></td></tr><tr><td><div>::ffff:127.0.0.1</div></td></tr><tr><td><div>127.0.0.1</div></td></tr><tr><td><div>marian-GA-MA770T-UD3</div></td></tr></table></div></td></tr><tr><td style="font-weight:bold;vertical-align:top;">web2py_version</td><td style="vertical-align:top;">:</td><td><div>2.13.3-stable+timestamp.2015.12.24.08.08.22</div></td></tr></table></div></td></tr><tr><td style="font-weight:bold;vertical-align:top;">is_https</td><td style="vertical-align:top;">:</td><td><div>False</div></td></tr><tr><td style="font-weight:bold;vertical-align:top;">is_local</td><td style="vertical-align:top;">:</td><td><div>True</div></td></tr><tr><td style="font-weight:bold;vertical-align:top;">is_restful</td><td style="vertical-align:top;">:</td><td><div>False</div></td></tr><tr><td style="font-weight:bold;vertical-align:top;">is_scheduler</td><td style="vertical-align:top;">:</td><td><div>False</div></td></tr><tr><td style="font-weight:bold;vertical-align:top;">is_shell</td><td style="vertical-align:top;">:</td><td><div>False</div></td></tr><tr><td style="font-weight:bold;vertical-align:top;">now</td><td style="vertical-align:top;">:</td><td><div>datetime.datetime(2016, 2, 4, 18, 12, 53, 605402)</div></td></tr><tr><td style="font-weight:bold;vertical-align:top;">raw_args</td><td style="vertical-align:top;">:</td><td><div></div></td></tr><tr><td style="font-weight:bold;vertical-align:top;">raw_extension</td><td style="vertical-align:top;">:</td><td><div>None</div></td></tr><tr><td style="font-weight:bold;vertical-align:top;">url</td><td style="vertical-align:top;">:</td><td><div>/PyDoctor/default/agenda</div></td></tr><tr><td style="font-weight:bold;vertical-align:top;">utcnow</td><td style="vertical-align:top;">:</td><td><div>datetime.datetime(2016, 2, 4, 21, 12, 53, 605452)</div></td></tr><tr><td style="font-weight:bold;vertical-align:top;">wsgi</td><td style="vertical-align:top;">:</td><td><div>&lt;gluon.main.LazyWSGI object at 0x7fb405f3efd0&gt;</div></td></tr></table></div>'
tRp58
sS'frames'
p59
(lp60
(dp61
S'file'
p62
S'/home/marian/web2py/gluon/restricted.py'
p63
sS'dump'
p64
(dp65
S'environment'
p66
S"{'A': <class 'gluon.html.A'>, 'ANY_OF': <class 'gluon.validators.ANY_OF'>, 'ASSIGNJS': <function ASSIGNJS>, 'AppConfig': <function AppConfig>, 'Auth': <class 'gluon.tools.Auth'>, 'B': <class 'gluon.html.B'>, 'BEAUTIFY': <class 'gluon.html.BEAUTIFY'>, 'BODY': <class 'gluon.html.BODY'>, 'BR': <class 'gluon.html.BR'>, 'BUTTON': <class 'gluon.html.BUTTON'>, ...}"
p67
sS'ccode'
p68
S'<code object <module> at 0x7fb405ef2e30, file "/...cations/PyDoctor/controllers/default.py", line 3>'
p69
ssS'lnum'
p70
I227
sS'lines'
p71
(dp72
I224
S'            ccode = code'
p73
sI225
S'        else:'
p74
sI226
S'            ccode = compile2(code, layer)'
p75
sI227
S'        exec ccode in environment'
p76
sI228
S'    except HTTP:'
p77
sI229
S'        raise'
p78
sI230
S'    except RestrictedError:'
p79
sI231
S'        # do not encapsulate (obfuscate) the original RestrictedError'
p80
sI222
S'    try:'
p81
sI223
S'        if isinstance(code, types.CodeType):'
p82
ssS'call'
p83
S"(code='# -*- coding: utf-8 -*-\\n# this file is released ...auth())\\n\\nresponse._vars=response._caller(agenda)\\n', environment={'A': <class 'gluon.html.A'>, 'ANY_OF': <class 'gluon.validators.ANY_OF'>, 'ASSIGNJS': <function ASSIGNJS>, 'AppConfig': <function AppConfig>, 'Auth': <class 'gluon.tools.Auth'>, 'B': <class 'gluon.html.B'>, 'BEAUTIFY': <class 'gluon.html.BEAUTIFY'>, 'BODY': <class 'gluon.html.BODY'>, 'BR': <class 'gluon.html.BR'>, 'BUTTON': <class 'gluon.html.BUTTON'>, ...}, layer='/home/marian/web2py/applications/PyDoctor/controllers/default.py')"
p84
sS'func'
p85
S'restricted'
p86
sa(dp87
g62
S'/home/marian/web2py/applications/PyDoctor/controllers/default.py'
p88
sg64
(dp89
sg70
I177
sg71
(dp90
I166
S'    http://..../[app]/default/user/retrieve_password'
p91
sI167
S'    http://..../[app]/default/user/change_password'
p92
sI168
S'    http://..../[app]/default/user/bulk_register'
p93
sI169
S'    use @auth.requires_login()'
p94
sI170
S"        @auth.requires_membership('group name')"
p95
sI171
S"        @auth.requires_permission('read','table name',record_id)"
p96
sI172
S'    to decorate functions that need access control'
p97
sI173
S'    also notice there is http://..../[app]/appadmin/manage/auth to allow administrator to manage users'
p98
sI174
S'    """'
p99
sI175
S'    return dict(form=auth())'
p100
ssg83
S'()'
p101
sg85
S'<module>'
p102
sa(dp103
g62
S'/home/marian/web2py/gluon/globals.py'
p104
sg64
(dp105
S'self'
p106
S'undefined'
p107
sS'f'
S'<function agenda>'
p108
ssg70
I422
sg71
(dp109
I417
S"        self.flash = ''            # used by the default view layout"
p110
sI418
S'        self.meta = Storage()      # used by web2py_ajax.html'
p111
sI419
S'        self.menu = []             # used by the default view layout'
p112
sI420
S'        self.files = []            # used by web2py_ajax.html'
p113
sI421
S'        self._vars = None'
p114
sI422
S'        self._caller = lambda f: f()'
p115
sI423
S'        self._view_environment = None'
p116
sI424
S'        self._custom_commit = None'
p117
sI425
S'        self._custom_rollback = None'
p118
sI426
S"        self.generic_patterns = ['*']"
p119
ssg83
S'(f=<function agenda>)'
p120
sg85
S'<lambda>'
p121
sa(dp122
g62
S'/home/marian/web2py/gluon/tools.py'
p123
sg64
(dp124
S'action'
p125
S'<function agenda>'
p126
sS'a'
S'()'
p127
sS'b'
g45
ssg70
I4228
sg71
(dp128
I4224
S'                if not flag:'
p129
sI4225
S'                    current.session.flash = self.messages.access_denied'
p130
sI4226
S'                    return call_or_redirect('
p131
sI4227
S'                        self.settings.on_failed_authorization)'
p132
sI4228
S'                return action(*a, **b)'
p133
sI4229
S'            f.__doc__ = action.__doc__'
p134
sI4230
S'            f.__name__ = action.__name__'
p135
sI4231
S'            f.__dict__.update(action.__dict__)'
p136
sI4232
S'            return f'
p137
sI4223
S'                    flag = condition'
p138
ssg83
S'(*a=(), **b={})'
p139
sg85
S'f'
sa(dp140
g62
S'/home/marian/web2py/applications/PyDoctor/controllers/default.py'
p141
sg64
(dp142
S'global myexport'
p143
S"{'csv': False, 'csv_with_hidden_cols': False, 'html': False, 'json': False, 'tsv': False, 'tsv_with_hidden_cols': False, 'xml': False}"
p144
sS'user_signature'
p145
g107
sS'builtinFalse'
p146
S'False'
p147
sS'exportclasses'
p148
g107
ssg70
I69
sg71
(dp149
I64
S"                            'db.agenda.titulo':'Titulo',"
p150
sI65
S"                            'db.agenda.texto':'Descripcion',"
p151
sI66
S"                            'db.agenda.estado':'E',"
p152
sI67
S"                            'db.agenda.prioridad':'P'},"
p153
sI68
S'                        maxtextlengths=maxtextlengths,maxtextlength=70,'
p154
sI69
S'                        user_signature=False,exportclasses=myexport)'
p155
sI70
S'    return locals()'
p156
sI71
S''
sI72
S'@auth.requires_login()'
p157
sI73
S'def calendar():'
p158
ssg83
S'()'
p159
sg85
S'agenda'
p160
sa(dp161
g62
S'/home/marian/web2py/gluon/sqlhtml.py'
p162
sg64
(dp163
S'field.represent'
p164
S'<function agenda_titulo>'
p165
sS'field'
p166
S'<pydal.objects.Field object>'
p167
sS'row'
p168
S"<Row {'vencimiento': datetime.datetime(2008, 8, ...vers. A fixed stage. ', 'estado': 'C', 'id': 2L}>"
p169
sS'value'
p170
S"'Commoner still smaller globes in the rivers. A fixed stage. '"
p171
sS'nvalue'
p172
g107
ssg70
I2729
sg71
(dp173
I2724
S'                    if field.represent:'
p174
sI2725
S"                        if field.type.startswith('reference'):"
p175
sI2726
S'                            nvalue = repr_cache(field, value, row)'
p176
sI2727
S'                        else:'
p177
sI2728
S'                            try:'
p178
sI2729
S'                                nvalue = field.represent(value, row)'
p179
sI2730
S'                            except KeyError:'
p180
sI2731
S'                                try:'
p181
sI2732
S'                                    nvalue = field.represent(value, row[field.tablename])'
p182
sI2733
S'                                except KeyError:'
p183
ssg83
S"(query=<Query (agenda.created_by = 2)>, fields=[<pydal.objects.Field object>, <pydal.objects.Field object>, <pydal.objects.Field object>, <pydal.objects.Field object>, <pydal.objects.Field object>, <pydal.objects.Field object>], field_id=<pydal.objects.Field object>, left=None, headers={'db.agenda.estado': 'E', 'db.agenda.prioridad': 'P', 'db.agenda.texto': 'Descripcion', 'db.agenda.titulo': 'Titulo', 'db.agenda.vencimiento': 'Vence el'}, orderby=<pydal.objects.Field object>, groupby=None, searchable=True, sortable=True, paginate=20, deletable=True, editable=True, details=True, selectable=None, create=True, csv=True, links=None, links_in_grid=True, upload=<function <lambda>>, args=[], user_signature=False, maxtextlengths={'db.agenda.texto': 70, 'db.agenda.titulo': 60, 'db.agenda.vencimiento': 15}, maxtextlength=70, onvalidation=None, onfailure=None, oncreate=None, onupdate=None, ondelete=None, sorter_icons=(<gluon.html.XML object>, <gluon.html.XML object>), ui={'button': 'button btn btn-default', 'buttonadd': 'icon plus icon-plus glyphicon glyphicon-plus', 'buttonback': 'icon leftarrow icon-arrow-left glyphicon glyphicon-arrow-left', 'buttondelete': 'icon trash icon-trash glyphicon glyphicon-trash', 'buttonedit': 'icon pen icon-pencil glyphicon glyphicon-pencil', 'buttonexport': 'icon downarrow icon-download glyphicon glyphicon-download', 'buttontable': 'icon rightarrow icon-arrow-right glyphicon glyphicon-arrow-right', 'buttontext': 'buttontext button', 'buttonview': 'icon magnifier icon-zoom-in glyphicon glyphicon-zoom-in', 'content': '', ...}, showbuttontext=True, _class='web2py_grid', formname='web2py_grid', search_widget=<function <lambda>>, advanced_search=True, ignore_rw=False, formstyle='bootstrap3_inline', exportclasses={'csv': False, 'csv_with_hidden_cols': False, 'html': False, 'json': False, 'tsv': False, 'tsv_with_hidden_cols': False, 'xml': False}, formargs={}, createargs={}, editargs={}, viewargs={}, selectable_submit_button='Submit', buttons_placement='right', links_placement='right', noconfirm=False, cache_count=None, client_side_delete=False, ignore_common_filters=None, auto_pagination=True, use_cursor=False)"
p184
sg85
S'grid'
p185
sa(dp186
g62
S'/home/marian/web2py/applications/PyDoctor/models/db_pydoctor.py'
p187
sg64
(dp188
S'p'
g107
sS'icon'
p189
S'\'<span style="color:%s" class="glyphicon %s"></span>\''
p190
ssg70
I137
sg71
(dp191
I132
S"468847\tgreen'''"
p192
sI133
S''
sI134
S'def agenda_titulo(value,row):'
p193
sI135
S'    prio=colors[int(row.prioridad)]'
p194
sI136
S'    icon=\'<span style="color:%s" class="glyphicon %s"></span>\''
p195
sI137
S'    icon=icon%(p[1],p[2])'
p196
sI138
S"    if row.estado == 'R':"
p197
sI139
S'        icon+=\'<span class="glyphicon glyphicon-ok"></span>\''
p198
sI140
S"    elif row.estado == 'C':"
p199
sI141
S'        icon+=\'<span class="glyphicon glyphicon-remove"></span>\''
p200
ssg83
S"(value='Commoner still smaller globes in the rivers. A fixed stage. ', row=<Row {'vencimiento': datetime.datetime(2008, 8, ...vers. A fixed stage. ', 'estado': 'C', 'id': 2L}>)"
p201
sg85
S'agenda_titulo'
p202
sasS'pyver'
p203
S'Python 2.7.10: /usr/bin/python (prefix: /usr)'
p204
sS'session'
p205
g57
(S's\xe6\x08\x00\x00<div><table><tr><td style="font-weight:bold;vertical-align:top;">auth</td><td style="vertical-align:top;">:</td><td><div><table><tr><td style="font-weight:bold;vertical-align:top;">expiration</td><td style="vertical-align:top;">:</td><td><div>3600</div></td></tr><tr><td style="font-weight:bold;vertical-align:top;">hmac_key</td><td style="vertical-align:top;">:</td><td><div>ce736771-8937-4e03-a280-da07c9964b05</div></td></tr><tr><td style="font-weight:bold;vertical-align:top;">last_visit</td><td style="vertical-align:top;">:</td><td><div>datetime.datetime(2016, 2, 4, 18, 11, 58, 543916)</div></td></tr><tr><td style="font-weight:bold;vertical-align:top;">remember_me</td><td style="vertical-align:top;">:</td><td><div>False</div></td></tr><tr><td style="font-weight:bold;vertical-align:top;">user</td><td style="vertical-align:top;">:</td><td><div><table><tr><td style="font-weight:bold;vertical-align:top;">email</td><td style="vertical-align:top;">:</td><td><div>egomez@users.com</div></td></tr><tr><td style="font-weight:bold;vertical-align:top;">first_name</td><td style="vertical-align:top;">:</td><td><div>Elena</div></td></tr><tr><td style="font-weight:bold;vertical-align:top;">id</td><td style="vertical-align:top;">:</td><td><div>2L</div></td></tr><tr><td style="font-weight:bold;vertical-align:top;">last_name</td><td style="vertical-align:top;">:</td><td><div>Gomez</div></td></tr><tr><td style="font-weight:bold;vertical-align:top;">registration_id</td><td style="vertical-align:top;">:</td><td><div></div></td></tr><tr><td style="font-weight:bold;vertical-align:top;">registration_key</td><td style="vertical-align:top;">:</td><td><div></div></td></tr><tr><td style="font-weight:bold;vertical-align:top;">reset_password_key</td><td style="vertical-align:top;">:</td><td><div></div></td></tr></table></div></td></tr><tr><td style="font-weight:bold;vertical-align:top;">user_groups</td><td style="vertical-align:top;">:</td><td><div><table><tr><td style="font-weight:bold;vertical-align:top;">2</td><td style="vertical-align:top;">:</td><td><div>user_2</div></td></tr></table></div></td></tr></table></div></td></tr><tr><td style="font-weight:bold;vertical-align:top;">flash</td><td style="vertical-align:top;">:</td><td><div>None</div></td></tr></table></div>'
tRp206
sS'etype'
p207
S"<type 'exceptions.NameError'>"
p208
sS'date'
p209
S'Thu Feb  4 18:12:53 2016'
p210
sS'response'
p211
g57
(S's<#\x00\x00<div><table><tr><td style="font-weight:bold;vertical-align:top;">body</td><td style="vertical-align:top;">:</td><td><div>&lt;cStringIO.StringO object at 0x7fb405f3fb58&gt;</div></td></tr><tr><td style="font-weight:bold;vertical-align:top;">cookies</td><td style="vertical-align:top;">:</td><td><div><table><tr><td style="font-weight:bold;vertical-align:top;">session_id_pydoctor</td><td style="vertical-align:top;">:</td><td><div>127.0.0.1-5b40538b-5d3a-4409-9542-f15a4682b249<table><tr><td style="font-weight:bold;vertical-align:top;">comment</td><td style="vertical-align:top;">:</td><td><div></div></td></tr><tr><td style="font-weight:bold;vertical-align:top;">domain</td><td style="vertical-align:top;">:</td><td><div></div></td></tr><tr><td style="font-weight:bold;vertical-align:top;">expires</td><td style="vertical-align:top;">:</td><td><div></div></td></tr><tr><td style="font-weight:bold;vertical-align:top;">httponly</td><td style="vertical-align:top;">:</td><td><div></div></td></tr><tr><td style="font-weight:bold;vertical-align:top;">max-age</td><td style="vertical-align:top;">:</td><td><div></div></td></tr><tr><td style="font-weight:bold;vertical-align:top;">path</td><td style="vertical-align:top;">:</td><td><div>/</div></td></tr><tr><td style="font-weight:bold;vertical-align:top;">secure</td><td style="vertical-align:top;">:</td><td><div></div></td></tr><tr><td style="font-weight:bold;vertical-align:top;">version</td><td style="vertical-align:top;">:</td><td><div></div></td></tr></table></div></td></tr></table></div></td></tr><tr><td style="font-weight:bold;vertical-align:top;">delimiters</td><td style="vertical-align:top;">:</td><td><div><table><tr><td><div>{{</div></td></tr><tr><td><div>}}</div></td></tr></table></div></td></tr><tr><td style="font-weight:bold;vertical-align:top;">files</td><td style="vertical-align:top;">:</td><td><div><table></table></div></td></tr><tr><td style="font-weight:bold;vertical-align:top;">flash</td><td style="vertical-align:top;">:</td><td><div></div></td></tr><tr><td style="font-weight:bold;vertical-align:top;">form_label_separator</td><td style="vertical-align:top;">:</td><td><div></div></td></tr><tr><td style="font-weight:bold;vertical-align:top;">formstyle</td><td style="vertical-align:top;">:</td><td><div>bootstrap3_inline</div></td></tr><tr><td style="font-weight:bold;vertical-align:top;">generic_patterns</td><td style="vertical-align:top;">:</td><td><div><table><tr><td><div>*</div></td></tr></table></div></td></tr><tr><td style="font-weight:bold;vertical-align:top;">google_analytics_id</td><td style="vertical-align:top;">:</td><td><div>None</div></td></tr><tr><td style="font-weight:bold;vertical-align:top;">headers</td><td style="vertical-align:top;">:</td><td><div><table><tr><td style="font-weight:bold;vertical-align:top;">X-Powered-By</td><td style="vertical-align:top;">:</td><td><div>web2py</div></td></tr></table></div></td></tr><tr><td style="font-weight:bold;vertical-align:top;">logo</td><td style="vertical-align:top;">:</td><td><div><a class="navbar-brand" id="web2py-logo"><b><span>Py</span>Doctor</b>&trade;&nbsp;</a></div></td></tr><tr><td style="font-weight:bold;vertical-align:top;">menu</td><td style="vertical-align:top;">:</td><td><div><table><tr><td><div><table><tr><td><div>Inicio</div></td></tr><tr><td><div>False</div></td></tr><tr><td><div>/PyDoctor/default/index</div></td></tr><tr><td><div><table></table></div></td></tr></table></div></td></tr><tr><td><div><table><tr><td><div>Expedientes</div></td></tr><tr><td><div>False</div></td></tr><tr><td><div>/PyDoctor/default/admin_expedientes</div></td></tr></table></div></td></tr><tr><td><div><table><tr><td><div>Contactos</div></td></tr><tr><td><div>False</div></td></tr><tr><td><div>/PyDoctor/default/admin_personas</div></td></tr></table></div></td></tr><tr><td><div><table><tr><td><div>Calendario</div></td></tr><tr><td><div>False</div></td></tr><tr><td><div>/PyDoctor/default/calendar</div></td></tr></table></div></td></tr><tr><td><div><table><tr><td><div>Agenda</div></td></tr><tr><td><div>False</div></td></tr><tr><td><div>/PyDoctor/default/agenda</div></td></tr></table></div></td></tr><tr><td><div><table><tr><td><div>Juzgados</div></td></tr><tr><td><div>False</div></td></tr><tr><td><div>/PyDoctor/default/admin_juzgados</div></td></tr></table></div></td></tr><tr><td><div><table><tr><td><div>Tablas</div></td></tr><tr><td><div>False</div></td></tr><tr><td><div>#</div></td></tr><tr><td><div><table><tr><td><div><table><tr><td><div>Instancias</div></td></tr><tr><td><div>False</div></td></tr><tr><td><div>/PyDoctor/default/instancias</div></td></tr></table></div></td></tr><tr><td><div><table><tr><td><div>Fueros</div></td></tr><tr><td><div>False</div></td></tr><tr><td><div>/PyDoctor/default/fueros</div></td></tr></table></div></td></tr></table></div></td></tr></table></div></td></tr></table></div></td></tr><tr><td style="font-weight:bold;vertical-align:top;">meta</td><td style="vertical-align:top;">:</td><td><div><table><tr><td style="font-weight:bold;vertical-align:top;">author</td><td style="vertical-align:top;">:</td><td><div>Your Name &lt;you@example.com&gt;</div></td></tr><tr><td style="font-weight:bold;vertical-align:top;">description</td><td style="vertical-align:top;">:</td><td><div>a cool new app</div></td></tr><tr><td style="font-weight:bold;vertical-align:top;">generator</td><td style="vertical-align:top;">:</td><td><div>Web2py Web Framework</div></td></tr><tr><td style="font-weight:bold;vertical-align:top;">keywords</td><td style="vertical-align:top;">:</td><td><div>web2py, python, framework</div></td></tr></table></div></td></tr><tr><td style="font-weight:bold;vertical-align:top;">models_to_run</td><td style="vertical-align:top;">:</td><td><div><table><tr><td><div>^\\w+\\.py$</div></td></tr><tr><td><div>^default/\\w+\\.py$</div></td></tr><tr><td><div>^default/agenda/\\w+\\.py$</div></td></tr></table></div></td></tr><tr><td style="font-weight:bold;vertical-align:top;">postprocessing</td><td style="vertical-align:top;">:</td><td><div><table></table></div></td></tr><tr><td style="font-weight:bold;vertical-align:top;">session_client</td><td style="vertical-align:top;">:</td><td><div>127.0.0.1</div></td></tr><tr><td style="font-weight:bold;vertical-align:top;">session_cookie_compression_level</td><td style="vertical-align:top;">:</td><td><div>None</div></td></tr><tr><td style="font-weight:bold;vertical-align:top;">session_cookie_expires</td><td style="vertical-align:top;">:</td><td><div>None</div></td></tr><tr><td style="font-weight:bold;vertical-align:top;">session_cookie_key</td><td style="vertical-align:top;">:</td><td><div>None</div></td></tr><tr><td style="font-weight:bold;vertical-align:top;">session_data_name</td><td style="vertical-align:top;">:</td><td><div>session_data_pydoctor</div></td></tr><tr><td style="font-weight:bold;vertical-align:top;">session_file</td><td style="vertical-align:top;">:</td><td><div>&lt;open file &#x27;/home/marian/web2py/applications/PyDoctor/sessions/15d/096/127.0.0.1-5b40538b-5d3a-4409-9542-f15a4682b249&#x27;, mode &#x27;rb+&#x27; at 0x7fb405e16540&gt;</div></td></tr><tr><td style="font-weight:bold;vertical-align:top;">session_filename</td><td style="vertical-align:top;">:</td><td><div>/home/marian/web2py/applications/PyDoctor/sessions/127.0.0.1-5b40538b-5d3a-4409-9542-f15a4682b249</div></td></tr><tr><td style="font-weight:bold;vertical-align:top;">session_hash</td><td style="vertical-align:top;">:</td><td><div>89d2bee225e7e0407879682e81c5c978</div></td></tr><tr><td style="font-weight:bold;vertical-align:top;">session_id</td><td style="vertical-align:top;">:</td><td><div>127.0.0.1-5b40538b-5d3a-4409-9542-f15a4682b249</div></td></tr><tr><td style="font-weight:bold;vertical-align:top;">session_id_name</td><td style="vertical-align:top;">:</td><td><div>session_id_pydoctor</div></td></tr><tr><td style="font-weight:bold;vertical-align:top;">session_locked</td><td style="vertical-align:top;">:</td><td><div>True</div></td></tr><tr><td style="font-weight:bold;vertical-align:top;">session_masterapp</td><td style="vertical-align:top;">:</td><td><div>PyDoctor</div></td></tr><tr><td style="font-weight:bold;vertical-align:top;">session_new</td><td style="vertical-align:top;">:</td><td><div>False</div></td></tr><tr><td style="font-weight:bold;vertical-align:top;">session_storage_type</td><td style="vertical-align:top;">:</td><td><div>file</div></td></tr><tr><td style="font-weight:bold;vertical-align:top;">status</td><td style="vertical-align:top;">:</td><td><div>200</div></td></tr><tr><td style="font-weight:bold;vertical-align:top;">subtitle</td><td style="vertical-align:top;">:</td><td><div>Sistema de gesti\xc3\xb3n para estudios jur\xc3\xaddicos</div></td></tr><tr><td style="font-weight:bold;vertical-align:top;">title</td><td style="vertical-align:top;">:</td><td><div>Pydoctor</div></td></tr><tr><td style="font-weight:bold;vertical-align:top;">view</td><td style="vertical-align:top;">:</td><td><div>default/agenda.html</div></td></tr></table></div>'
tRp212
sS'locals'
p213
(dp214
S'row'
p215
S"<Row {'vencimiento': datetime.datetime(2008, 8, ...vers. A fixed stage. ', 'estado': 'C', 'id': 2L}>"
p216
sS'value'
p217
S"'Commoner still smaller globes in the rivers. A fixed stage. '"
p218
sS'prio'
p219
S"(<lazyT 'Recordar'>, '#468847', 'glyphicon-heart')"
p220
sS'icon'
p221
S'\'<span style="color:%s" class="glyphicon %s"></span>\''
p222
sssS'traceback'
p223
S'Traceback (most recent call last):\n  File "/home/marian/web2py/gluon/restricted.py", line 227, in restricted\n    exec ccode in environment\n  File "/home/marian/web2py/applications/PyDoctor/controllers/default.py", line 177, in <module>\n  File "/home/marian/web2py/gluon/globals.py", line 422, in <lambda>\n    self._caller = lambda f: f()\n  File "/home/marian/web2py/gluon/tools.py", line 4228, in f\n    return action(*a, **b)\n  File "/home/marian/web2py/applications/PyDoctor/controllers/default.py", line 69, in agenda\n    user_signature=False,exportclasses=myexport)\n  File "/home/marian/web2py/gluon/sqlhtml.py", line 2729, in grid\n    nvalue = field.represent(value, row)\n  File "/home/marian/web2py/applications/PyDoctor/models/db_pydoctor.py", line 137, in agenda_titulo\n    icon=icon%(p[1],p[2])\nNameError: global name \'p\' is not defined\n'
p224
s.