(dp1
S'output'
p2
S"<type 'exceptions.AttributeError'> 'Set' object has no attribute 'id'"
p3
sS'layer'
p4
S'/home/marian/web2py/applications/PyDoctor/controllers/expedientes.py'
p5
sS'code'
p6
S"# -*- coding: utf-8 -*-\n# try something like\n\nlinked_tables=['movimiento','agenda','parte']\n@auth.requires_login()\ndef index():\n    '''\n    if len(request.args)>2 and 'expediente_id' in request.args[1]:\n        cur=request.args(2,cast=int)\n        db.movimiento.expediente_id=cur\n        db.parte.expediente_id=cur\n        db.agenda.expediente_id=cur\n    '''\n    db.movimiento.expediente_id.readable=db.movimiento.expediente_id.writable=False\n    db.parte.expediente_id.readable=db.parte.expediente_id.writable=False\n    db.agenda.expediente_id.readable=db.agenda.expediente_id.writable=False\n    maxtextlengths={'db.expediente.numero' : 15,\n                    'db.expediente.caratula':60,\n                    'db.expediente.juzgado_id':45,\n                    'db.movimiento.titulo':40,\n                    'db.movimiento.texto':40,\n                    'db.movimiento.estado':5,\n                    'db.agenda.vencimiento':15,\n                    'db.agenda.titulo':60,\n                    'db.parte.persona_id':40,\n                    'db.parte.caracter':30}\n    grid = SQLFORM.smartgrid(db.expediente,\n                             fields=[db.expediente.numero,\n                                     db.expediente.caratula,\n                                     db.expediente.juzgado_id,\n                                    db.movimiento.estado,\n                                    db.movimiento.titulo,\n                                    db.movimiento.texto,\n                                    db.agenda.estado,db.agenda.prioridad,\n                                    db.agenda.vencimiento,\n                                    db.agenda.titulo,\n                                    db.parte.persona_id,\n                                    db.parte.caracter,\n                                    db.movimiento.expediente_id,\n                                    db.parte.expediente_id,\n                                    db.agenda.expediente_id\n                                    ],\n                    constraints={'expediente':(db.expediente.created_by==auth.user.id)},\n                    linked_tables=linked_tables,\n                    buttons_placement = 'right',\n                    exportclasses=myexport,\n                    advanced_search=False,\n                    maxtextlength=100,\n                    maxtextlengths=maxtextlengths)\n    return locals()\n\ndef vista_expediente():\n    expte= SQLFORM(db.expediente, int(request.args[0]), formstyle='bootstrap', readonly=True)\n\n    url=URL('index',args=['expediente','edit','expediente',request.args[0]],user_signature=True)\n    links=[A('Expediente',_href=url, _type='button',_class='btn btn-default')]\n    for k in linked_tables:\n        args=['expediente','%s.expediente_id'%k,request.args[0]]\n        url=URL('index',args=args, user_signature=True)\n        text=SPAN(k.capitalize()+'s',_class='buttontext button')\n        links.append(A(text,_href=url,_type='button',_class='btn btn-default'))\n    return dict(links=links,expte=expte)\n\nresponse._vars=response._caller(index)\n"
p7
sS'snapshot'
p8
(dp9
S'exception'
p10
(dp11
S'__hash__'
p12
S"<method-wrapper '__hash__' of exceptions.AttributeError object>"
p13
sS'__setattr__'
p14
S"<method-wrapper '__setattr__' of exceptions.AttributeError object>"
p15
sS'__reduce_ex__'
p16
S'<built-in method __reduce_ex__ of exceptions.AttributeError object>'
p17
sS'__getslice__'
p18
S"<method-wrapper '__getslice__' of exceptions.AttributeError object>"
p19
sS'__getitem__'
p20
S"<method-wrapper '__getitem__' of exceptions.AttributeError object>"
p21
sS'__setstate__'
p22
S'<built-in method __setstate__ of exceptions.AttributeError object>'
p23
sS'args'
p24
S'("\'Set\' object has no attribute \'id\'",)'
p25
sS'__reduce__'
p26
S'<built-in method __reduce__ of exceptions.AttributeError object>'
p27
sS'__str__'
p28
S"<method-wrapper '__str__' of exceptions.AttributeError object>"
p29
sS'__format__'
p30
S'<built-in method __format__ of exceptions.AttributeError object>'
p31
sS'__getattribute__'
p32
S"<method-wrapper '__getattribute__' of exceptions.AttributeError object>"
p33
sS'__class__'
p34
S"<type 'exceptions.AttributeError'>"
p35
sS'__unicode__'
p36
S'<built-in method __unicode__ of exceptions.AttributeError object>'
p37
sS'__delattr__'
p38
S"<method-wrapper '__delattr__' of exceptions.AttributeError object>"
p39
sS'__subclasshook__'
p40
S'<built-in method __subclasshook__ of type object>'
p41
sS'__repr__'
p42
S"<method-wrapper '__repr__' of exceptions.AttributeError object>"
p43
sS'__dict__'
p44
S'{}'
p45
sS'__sizeof__'
p46
S'<built-in method __sizeof__ of exceptions.AttributeError object>'
p47
sS'__doc__'
p48
S"'Attribute not found.'"
p49
sS'__init__'
p50
S"<method-wrapper '__init__' of exceptions.AttributeError object>"
p51
sS'__new__'
p52
S'<built-in method __new__ of type object>'
p53
ssS'evalue'
p54
S"'Set' object has no attribute 'id'"
p55
sS'request'
p56
cgluon.html
XML_unpickle
p57
(S's\xcbc\x00\x00<div><table><tr><td style="font-weight:bold;vertical-align:top;">ajax</td><td style="vertical-align:top;">:</td><td><div>False</div></td></tr><tr><td style="font-weight:bold;vertical-align:top;">application</td><td style="vertical-align:top;">:</td><td><div>PyDoctor</div></td></tr><tr><td style="font-weight:bold;vertical-align:top;">args</td><td style="vertical-align:top;">:</td><td><div><table><tr><td><div>expediente</div></td></tr><tr><td><div>movimiento.expediente_id</div></td></tr><tr><td><div>3</div></td></tr><tr><td><div>edit</div></td></tr><tr><td><div>movimiento</div></td></tr><tr><td><div>109</div></td></tr></table></div></td></tr><tr><td style="font-weight:bold;vertical-align:top;">cid</td><td style="vertical-align:top;">:</td><td><div>None</div></td></tr><tr><td style="font-weight:bold;vertical-align:top;">client</td><td style="vertical-align:top;">:</td><td><div>127.0.0.1</div></td></tr><tr><td style="font-weight:bold;vertical-align:top;">controller</td><td style="vertical-align:top;">:</td><td><div>expedientes</div></td></tr><tr><td style="font-weight:bold;vertical-align:top;">cookies</td><td style="vertical-align:top;">:</td><td><div><table><tr><td style="font-weight:bold;vertical-align:top;">session_id_admin</td><td style="vertical-align:top;">:</td><td><div>127.0.0.1-85cf3706-f93b-4f9d-abf8-b288d4d9dffe<table><tr><td style="font-weight:bold;vertical-align:top;">comment</td><td style="vertical-align:top;">:</td><td><div></div></td></tr><tr><td style="font-weight:bold;vertical-align:top;">domain</td><td style="vertical-align:top;">:</td><td><div></div></td></tr><tr><td style="font-weight:bold;vertical-align:top;">expires</td><td style="vertical-align:top;">:</td><td><div></div></td></tr><tr><td style="font-weight:bold;vertical-align:top;">httponly</td><td style="vertical-align:top;">:</td><td><div></div></td></tr><tr><td style="font-weight:bold;vertical-align:top;">max-age</td><td style="vertical-align:top;">:</td><td><div></div></td></tr><tr><td style="font-weight:bold;vertical-align:top;">path</td><td style="vertical-align:top;">:</td><td><div></div></td></tr><tr><td style="font-weight:bold;vertical-align:top;">secure</td><td style="vertical-align:top;">:</td><td><div></div></td></tr><tr><td style="font-weight:bold;vertical-align:top;">version</td><td style="vertical-align:top;">:</td><td><div></div></td></tr></table></div></td></tr><tr><td style="font-weight:bold;vertical-align:top;">session_id_pydoctor</td><td style="vertical-align:top;">:</td><td><div>127.0.0.1-90df6e8a-18ac-42ec-8964-09cb94aef51d<table><tr><td style="font-weight:bold;vertical-align:top;">comment</td><td style="vertical-align:top;">:</td><td><div></div></td></tr><tr><td style="font-weight:bold;vertical-align:top;">domain</td><td style="vertical-align:top;">:</td><td><div></div></td></tr><tr><td style="font-weight:bold;vertical-align:top;">expires</td><td style="vertical-align:top;">:</td><td><div></div></td></tr><tr><td style="font-weight:bold;vertical-align:top;">httponly</td><td style="vertical-align:top;">:</td><td><div></div></td></tr><tr><td style="font-weight:bold;vertical-align:top;">max-age</td><td style="vertical-align:top;">:</td><td><div></div></td></tr><tr><td style="font-weight:bold;vertical-align:top;">path</td><td style="vertical-align:top;">:</td><td><div></div></td></tr><tr><td style="font-weight:bold;vertical-align:top;">secure</td><td style="vertical-align:top;">:</td><td><div></div></td></tr><tr><td style="font-weight:bold;vertical-align:top;">version</td><td style="vertical-align:top;">:</td><td><div></div></td></tr></table></div></td></tr><tr><td style="font-weight:bold;vertical-align:top;">session_id_welcome</td><td style="vertical-align:top;">:</td><td><div>127.0.0.1-4de17788-5dfb-4fbf-b525-f94ccafa738b<table><tr><td style="font-weight:bold;vertical-align:top;">comment</td><td style="vertical-align:top;">:</td><td><div></div></td></tr><tr><td style="font-weight:bold;vertical-align:top;">domain</td><td style="vertical-align:top;">:</td><td><div></div></td></tr><tr><td style="font-weight:bold;vertical-align:top;">expires</td><td style="vertical-align:top;">:</td><td><div></div></td></tr><tr><td style="font-weight:bold;vertical-align:top;">httponly</td><td style="vertical-align:top;">:</td><td><div></div></td></tr><tr><td style="font-weight:bold;vertical-align:top;">max-age</td><td style="vertical-align:top;">:</td><td><div></div></td></tr><tr><td style="font-weight:bold;vertical-align:top;">path</td><td style="vertical-align:top;">:</td><td><div></div></td></tr><tr><td style="font-weight:bold;vertical-align:top;">secure</td><td style="vertical-align:top;">:</td><td><div></div></td></tr><tr><td style="font-weight:bold;vertical-align:top;">version</td><td style="vertical-align:top;">:</td><td><div></div></td></tr></table></div></td></tr></table></div></td></tr><tr><td style="font-weight:bold;vertical-align:top;">env</td><td style="vertical-align:top;">:</td><td><div><table><tr><td style="font-weight:bold;vertical-align:top;">CONTENT_LENGTH</td><td style="vertical-align:top;">:</td><td><div>1077</div></td></tr><tr><td style="font-weight:bold;vertical-align:top;">CONTENT_TYPE</td><td style="vertical-align:top;">:</td><td><div>multipart/form-data; boundary=---------------------------18688437371876072634197239447</div></td></tr><tr><td style="font-weight:bold;vertical-align:top;">HTTP_ACCEPT</td><td style="vertical-align:top;">:</td><td><div>text/html,application/xhtml+xml,application/xml;q=0.9,*/*;q=0.8</div></td></tr><tr><td style="font-weight:bold;vertical-align:top;">HTTP_ACCEPT_ENCODING</td><td style="vertical-align:top;">:</td><td><div>gzip, deflate</div></td></tr><tr><td style="font-weight:bold;vertical-align:top;">HTTP_ACCEPT_LANGUAGE</td><td style="vertical-align:top;">:</td><td><div>es-AR,es;q=0.8,en-US;q=0.5,en;q=0.3</div></td></tr><tr><td style="font-weight:bold;vertical-align:top;">HTTP_CONNECTION</td><td style="vertical-align:top;">:</td><td><div>keep-alive</div></td></tr><tr><td style="font-weight:bold;vertical-align:top;">HTTP_CONTENT_LENGTH</td><td style="vertical-align:top;">:</td><td><div>1077</div></td></tr><tr><td style="font-weight:bold;vertical-align:top;">HTTP_CONTENT_TYPE</td><td style="vertical-align:top;">:</td><td><div>multipart/form-data; boundary=---------------------------18688437371876072634197239447</div></td></tr><tr><td style="font-weight:bold;vertical-align:top;">HTTP_COOKIE</td><td style="vertical-align:top;">:</td><td><div>session_id_welcome=127.0.0.1-4de17788-5dfb-4fbf-b525-f94ccafa738b; session_id_admin=127.0.0.1-85cf3706-f93b-4f9d-abf8-b288d4d9dffe; session_id_pydoctor=127.0.0.1-90df6e8a-18ac-42ec-8964-09cb94aef51d</div></td></tr><tr><td style="font-weight:bold;vertical-align:top;">HTTP_HOST</td><td style="vertical-align:top;">:</td><td><div>127.0.0.1:8000</div></td></tr><tr><td style="font-weight:bold;vertical-align:top;">HTTP_REFERER</td><td style="vertical-align:top;">:</td><td><div>http://127.0.0.1:8000/PyDoctor/expedientes/index/expediente/movimiento.expediente_id/3/edit/movimiento/109?_signature=97643abff8a5d574bda41f1fcf33acb9704dd70e</div></td></tr><tr><td style="font-weight:bold;vertical-align:top;">HTTP_USER_AGENT</td><td style="vertical-align:top;">:</td><td><div>Mozilla/5.0 (X11; Ubuntu; Linux x86_64; rv:44.0) Gecko/20100101 Firefox/44.0</div></td></tr><tr><td style="font-weight:bold;vertical-align:top;">PATH_INFO</td><td style="vertical-align:top;">:</td><td><div>/PyDoctor/expedientes/index/expediente/movimiento.expediente_id/3/edit/movimiento/109</div></td></tr><tr><td style="font-weight:bold;vertical-align:top;">QUERY_STRING</td><td style="vertical-align:top;">:</td><td><div>_signature=97643abff8a5d574bda41f1fcf33acb9704dd70e</div></td></tr><tr><td style="font-weight:bold;vertical-align:top;">REMOTE_ADDR</td><td style="vertical-align:top;">:</td><td><div>127.0.0.1</div></td></tr><tr><td style="font-weight:bold;vertical-align:top;">REMOTE_PORT</td><td style="vertical-align:top;">:</td><td><div>44588</div></td></tr><tr><td style="font-weight:bold;vertical-align:top;">REQUEST_METHOD</td><td style="vertical-align:top;">:</td><td><div>POST</div></td></tr><tr><td style="font-weight:bold;vertical-align:top;">SCRIPT_NAME</td><td style="vertical-align:top;">:</td><td><div></div></td></tr><tr><td style="font-weight:bold;vertical-align:top;">SERVER_NAME</td><td style="vertical-align:top;">:</td><td><div>marian-GA-MA770T-UD3</div></td></tr><tr><td style="font-weight:bold;vertical-align:top;">SERVER_PORT</td><td style="vertical-align:top;">:</td><td><div>8000</div></td></tr><tr><td style="font-weight:bold;vertical-align:top;">SERVER_PROTOCOL</td><td style="vertical-align:top;">:</td><td><div>HTTP/1.1</div></td></tr><tr><td style="font-weight:bold;vertical-align:top;">SERVER_SOFTWARE</td><td style="vertical-align:top;">:</td><td><div>Rocket 1.2.6</div></td></tr><tr><td style="font-weight:bold;vertical-align:top;">app_folders</td><td style="vertical-align:top;">:</td><td><div>set([&#x27;/home/marian/web2py/applications/welcome/&#x27;, &#x27;/home/marian/web2py/applications/PyDoctor/&#x27;, &#x27;/home/marian/web2py/applications/admin/&#x27;])</div></td></tr><tr><td style="font-weight:bold;vertical-align:top;">applications_parent</td><td style="vertical-align:top;">:</td><td><div>/home/marian/web2py</div></td></tr><tr><td style="font-weight:bold;vertical-align:top;">cmd_args</td><td style="vertical-align:top;">:</td><td><div><table></table></div></td></tr><tr><td style="font-weight:bold;vertical-align:top;">cmd_options</td><td style="vertical-align:top;">:</td><td><div>&lt;Values at 0x7f5ce9b4bd40: {&#x27;verbose&#x27;: False, &#x27;ip&#x27;: &#x27;127.0.0.1&#x27;, &#x27;debuglevel&#x27;: 30, &#x27;with_scheduler&#x27;: False, &#x27;ips&#x27;: [&#x27;127.0.1.1&#x27;], &#x27;shutdown_timeout&#x27;: 5, &#x27;taskbar&#x27;: False, &#x27;with_coverage&#x27;: False, &#x27;scheduler_groups&#x27;: None, &#x27;port&#x27;: 8000, &#x27;maxthreads&#x27;: None, &#x27;softcron&#x27;: False, &#x27;server_name&#x27;: &#x27;marian-GA-MA770T-UD3&#x27;, &#x27;bpython&#x27;: False, &#x27;nogui&#x27;: False, &#x27;pid_filename&#x27;: &#x27;httpserver.pid&#x27;, &#x27;print_errors&#x27;: False, &#x27;extcron&#x27;: False, &#x27;runcron&#x27;: False, &#x27;run_system_tests&#x27;: False, &#x27;test&#x27;: None, &#x27;folder&#x27;: &#x27;/home/marian/web2py&#x27;, &#x27;config&#x27;: &#x27;&#x27;, &#x27;minthreads&#x27;: None, &#x27;shell&#x27;: None, &#x27;run&#x27;: &#x27;&#x27;, &#x27;log_filename&#x27;: &#x27;httpserver.log&#x27;, &#x27;profiler_dir&#x27;: None, &#x27;args&#x27;: [&#x27;&#x27;], &#x27;socket_timeout&#x27;: 5, &#x27;ssl_ca_certificate&#x27;: None, &#x27;scheduler&#x27;: None, &#x27;interfaces&#x27;: None, &#x27;ssl_private_key&#x27;: &#x27;&#x27;, &#x27;gae&#x27;: None, &#x27;password&#x27;: &#x27;&lt;ask&gt;&#x27;, &#x27;request_queue_size&#x27;: 5, &#x27;ssl_certificate&#x27;: &#x27;&#x27;, &#x27;cronjob&#x27;: False, &#x27;numthreads&#x27;: None, &#x27;quiet&#x27;: False, &#x27;import_models&#x27;: False, &#x27;timeout&#x27;: 10, &#x27;plain&#x27;: False, &#x27;nobanner&#x27;: False}&gt;</div></td></tr><tr><td style="font-weight:bold;vertical-align:top;">content_length</td><td style="vertical-align:top;">:</td><td><div>1077</div></td></tr><tr><td style="font-weight:bold;vertical-align:top;">content_type</td><td style="vertical-align:top;">:</td><td><div>multipart/form-data; boundary=---------------------------18688437371876072634197239447</div></td></tr><tr><td style="font-weight:bold;vertical-align:top;">db_sessions</td><td style="vertical-align:top;">:</td><td><div>set([])</div></td></tr><tr><td style="font-weight:bold;vertical-align:top;">debugging</td><td style="vertical-align:top;">:</td><td><div>True</div></td></tr><tr><td style="font-weight:bold;vertical-align:top;">gluon_parent</td><td style="vertical-align:top;">:</td><td><div>/home/marian/web2py</div></td></tr><tr><td style="font-weight:bold;vertical-align:top;">http_accept</td><td style="vertical-align:top;">:</td><td><div>text/html,application/xhtml+xml,application/xml;q=0.9,*/*;q=0.8</div></td></tr><tr><td style="font-weight:bold;vertical-align:top;">http_accept_encoding</td><td style="vertical-align:top;">:</td><td><div>gzip, deflate</div></td></tr><tr><td style="font-weight:bold;vertical-align:top;">http_accept_language</td><td style="vertical-align:top;">:</td><td><div>es-AR,es;q=0.8,en-US;q=0.5,en;q=0.3</div></td></tr><tr><td style="font-weight:bold;vertical-align:top;">http_connection</td><td style="vertical-align:top;">:</td><td><div>keep-alive</div></td></tr><tr><td style="font-weight:bold;vertical-align:top;">http_content_length</td><td style="vertical-align:top;">:</td><td><div>1077</div></td></tr><tr><td style="font-weight:bold;vertical-align:top;">http_content_type</td><td style="vertical-align:top;">:</td><td><div>multipart/form-data; boundary=---------------------------18688437371876072634197239447</div></td></tr><tr><td style="font-weight:bold;vertical-align:top;">http_cookie</td><td style="vertical-align:top;">:</td><td><div>session_id_welcome=127.0.0.1-4de17788-5dfb-4fbf-b525-f94ccafa738b; session_id_admin=127.0.0.1-85cf3706-f93b-4f9d-abf8-b288d4d9dffe; session_id_pydoctor=127.0.0.1-90df6e8a-18ac-42ec-8964-09cb94aef51d</div></td></tr><tr><td style="font-weight:bold;vertical-align:top;">http_host</td><td style="vertical-align:top;">:</td><td><div>127.0.0.1:8000</div></td></tr><tr><td style="font-weight:bold;vertical-align:top;">http_referer</td><td style="vertical-align:top;">:</td><td><div>http://127.0.0.1:8000/PyDoctor/expedientes/index/expediente/movimiento.expediente_id/3/edit/movimiento/109?_signature=97643abff8a5d574bda41f1fcf33acb9704dd70e</div></td></tr><tr><td style="font-weight:bold;vertical-align:top;">http_user_agent</td><td style="vertical-align:top;">:</td><td><div>Mozilla/5.0 (X11; Ubuntu; Linux x86_64; rv:44.0) Gecko/20100101 Firefox/44.0</div></td></tr><tr><td style="font-weight:bold;vertical-align:top;">is_jython</td><td style="vertical-align:top;">:</td><td><div>False</div></td></tr><tr><td style="font-weight:bold;vertical-align:top;">is_pypy</td><td style="vertical-align:top;">:</td><td><div>False</div></td></tr><tr><td style="font-weight:bold;vertical-align:top;">is_source</td><td style="vertical-align:top;">:</td><td><div>True</div></td></tr><tr><td style="font-weight:bold;vertical-align:top;">local_hosts</td><td style="vertical-align:top;">:</td><td><div><table><tr><td><div>::1</div></td></tr><tr><td><div>127.0.1.1</div></td></tr><tr><td><div>::ffff:127.0.0.1</div></td></tr><tr><td><div>127.0.0.1</div></td></tr><tr><td><div>marian-GA-MA770T-UD3</div></td></tr></table></div></td></tr><tr><td style="font-weight:bold;vertical-align:top;">path_info</td><td style="vertical-align:top;">:</td><td><div>/PyDoctor/expedientes/index/expediente/movimiento.expediente_id/3/edit/movimiento/109</div></td></tr><tr><td style="font-weight:bold;vertical-align:top;">query_string</td><td style="vertical-align:top;">:</td><td><div>_signature=97643abff8a5d574bda41f1fcf33acb9704dd70e</div></td></tr><tr><td style="font-weight:bold;vertical-align:top;">remote_addr</td><td style="vertical-align:top;">:</td><td><div>127.0.0.1</div></td></tr><tr><td style="font-weight:bold;vertical-align:top;">remote_port</td><td style="vertical-align:top;">:</td><td><div>44588</div></td></tr><tr><td style="font-weight:bold;vertical-align:top;">request_method</td><td style="vertical-align:top;">:</td><td><div>POST</div></td></tr><tr><td style="font-weight:bold;vertical-align:top;">request_uri</td><td style="vertical-align:top;">:</td><td><div>/PyDoctor/expedientes/index/expediente/movimiento.expediente_id/3/edit/movimiento/109?_signature=97643abff8a5d574bda41f1fcf33acb9704dd70e</div></td></tr><tr><td style="font-weight:bold;vertical-align:top;">script_name</td><td style="vertical-align:top;">:</td><td><div></div></td></tr><tr><td style="font-weight:bold;vertical-align:top;">server_name</td><td style="vertical-align:top;">:</td><td><div>marian-GA-MA770T-UD3</div></td></tr><tr><td style="font-weight:bold;vertical-align:top;">server_port</td><td style="vertical-align:top;">:</td><td><div>8000</div></td></tr><tr><td style="font-weight:bold;vertical-align:top;">server_protocol</td><td style="vertical-align:top;">:</td><td><div>HTTP/1.1</div></td></tr><tr><td style="font-weight:bold;vertical-align:top;">server_software</td><td style="vertical-align:top;">:</td><td><div>Rocket 1.2.6</div></td></tr><tr><td style="font-weight:bold;vertical-align:top;">web2py_path</td><td style="vertical-align:top;">:</td><td><div>/home/marian/web2py</div></td></tr><tr><td style="font-weight:bold;vertical-align:top;">web2py_version</td><td style="vertical-align:top;">:</td><td><div>2.13.3-stable+timestamp.2015.12.24.08.08.22</div></td></tr><tr><td style="font-weight:bold;vertical-align:top;">wsgi.errors</td><td style="vertical-align:top;">:</td><td><div>&lt;open file &#x27;&lt;stderr&gt;&#x27;, mode &#x27;w&#x27; at 0x7f5cf0b871e0&gt;</div></td></tr><tr><td style="font-weight:bold;vertical-align:top;">wsgi.file_wrapper</td><td style="vertical-align:top;">:</td><td><div>&lt;class wsgiref.util.FileWrapper at 0x7f5ce9b79390&gt;</div></td></tr><tr><td style="font-weight:bold;vertical-align:top;">wsgi.input</td><td style="vertical-align:top;">:</td><td><div>&lt;socket._fileobject object at 0x7f5cc00adbd0&gt;</div></td></tr><tr><td style="font-weight:bold;vertical-align:top;">wsgi.multiprocess</td><td style="vertical-align:top;">:</td><td><div>False</div></td></tr><tr><td style="font-weight:bold;vertical-align:top;">wsgi.multithread</td><td style="vertical-align:top;">:</td><td><div>True</div></td></tr><tr><td style="font-weight:bold;vertical-align:top;">wsgi.run_once</td><td style="vertical-align:top;">:</td><td><div>False</div></td></tr><tr><td style="font-weight:bold;vertical-align:top;">wsgi.url_scheme</td><td style="vertical-align:top;">:</td><td><div>http</div></td></tr><tr><td style="font-weight:bold;vertical-align:top;">wsgi.version</td><td style="vertical-align:top;">:</td><td><div><table><tr><td><div>1</div></td></tr><tr><td><div>0</div></td></tr></table></div></td></tr><tr><td style="font-weight:bold;vertical-align:top;">wsgi_errors</td><td style="vertical-align:top;">:</td><td><div>&lt;open file &#x27;&lt;stderr&gt;&#x27;, mode &#x27;w&#x27; at 0x7f5cf0b871e0&gt;</div></td></tr><tr><td style="font-weight:bold;vertical-align:top;">wsgi_file_wrapper</td><td style="vertical-align:top;">:</td><td><div>&lt;class wsgiref.util.FileWrapper at 0x7f5ce9b79390&gt;</div></td></tr><tr><td style="font-weight:bold;vertical-align:top;">wsgi_input</td><td style="vertical-align:top;">:</td><td><div>&lt;socket._fileobject object at 0x7f5cc00adbd0&gt;</div></td></tr><tr><td style="font-weight:bold;vertical-align:top;">wsgi_multiprocess</td><td style="vertical-align:top;">:</td><td><div>False</div></td></tr><tr><td style="font-weight:bold;vertical-align:top;">wsgi_multithread</td><td style="vertical-align:top;">:</td><td><div>True</div></td></tr><tr><td style="font-weight:bold;vertical-align:top;">wsgi_run_once</td><td style="vertical-align:top;">:</td><td><div>False</div></td></tr><tr><td style="font-weight:bold;vertical-align:top;">wsgi_url_scheme</td><td style="vertical-align:top;">:</td><td><div>http</div></td></tr><tr><td style="font-weight:bold;vertical-align:top;">wsgi_version</td><td style="vertical-align:top;">:</td><td><div><table><tr><td><div>1</div></td></tr><tr><td><div>0</div></td></tr></table></div></td></tr></table></div></td></tr><tr><td style="font-weight:bold;vertical-align:top;">extension</td><td style="vertical-align:top;">:</td><td><div>html</div></td></tr><tr><td style="font-weight:bold;vertical-align:top;">folder</td><td style="vertical-align:top;">:</td><td><div>/home/marian/web2py/applications/PyDoctor/</div></td></tr><tr><td style="font-weight:bold;vertical-align:top;">function</td><td style="vertical-align:top;">:</td><td><div>index</div></td></tr><tr><td style="font-weight:bold;vertical-align:top;">global_settings</td><td style="vertical-align:top;">:</td><td><div><table><tr><td style="font-weight:bold;vertical-align:top;">app_folders</td><td style="vertical-align:top;">:</td><td><div>set([&#x27;/home/marian/web2py/applications/welcome/&#x27;, &#x27;/home/marian/web2py/applications/PyDoctor/&#x27;, &#x27;/home/marian/web2py/applications/admin/&#x27;])</div></td></tr><tr><td style="font-weight:bold;vertical-align:top;">applications_parent</td><td style="vertical-align:top;">:</td><td><div>/home/marian/web2py</div></td></tr><tr><td style="font-weight:bold;vertical-align:top;">cmd_args</td><td style="vertical-align:top;">:</td><td><div><table></table></div></td></tr><tr><td style="font-weight:bold;vertical-align:top;">cmd_options</td><td style="vertical-align:top;">:</td><td><div>&lt;Values at 0x7f5ce9b4bd40: {&#x27;verbose&#x27;: False, &#x27;ip&#x27;: &#x27;127.0.0.1&#x27;, &#x27;debuglevel&#x27;: 30, &#x27;with_scheduler&#x27;: False, &#x27;ips&#x27;: [&#x27;127.0.1.1&#x27;], &#x27;shutdown_timeout&#x27;: 5, &#x27;taskbar&#x27;: False, &#x27;with_coverage&#x27;: False, &#x27;scheduler_groups&#x27;: None, &#x27;port&#x27;: 8000, &#x27;maxthreads&#x27;: None, &#x27;softcron&#x27;: False, &#x27;server_name&#x27;: &#x27;marian-GA-MA770T-UD3&#x27;, &#x27;bpython&#x27;: False, &#x27;nogui&#x27;: False, &#x27;pid_filename&#x27;: &#x27;httpserver.pid&#x27;, &#x27;print_errors&#x27;: False, &#x27;extcron&#x27;: False, &#x27;runcron&#x27;: False, &#x27;run_system_tests&#x27;: False, &#x27;test&#x27;: None, &#x27;folder&#x27;: &#x27;/home/marian/web2py&#x27;, &#x27;config&#x27;: &#x27;&#x27;, &#x27;minthreads&#x27;: None, &#x27;shell&#x27;: None, &#x27;run&#x27;: &#x27;&#x27;, &#x27;log_filename&#x27;: &#x27;httpserver.log&#x27;, &#x27;profiler_dir&#x27;: None, &#x27;args&#x27;: [&#x27;&#x27;], &#x27;socket_timeout&#x27;: 5, &#x27;ssl_ca_certificate&#x27;: None, &#x27;scheduler&#x27;: None, &#x27;interfaces&#x27;: None, &#x27;ssl_private_key&#x27;: &#x27;&#x27;, &#x27;gae&#x27;: None, &#x27;password&#x27;: &#x27;&lt;ask&gt;&#x27;, &#x27;request_queue_size&#x27;: 5, &#x27;ssl_certificate&#x27;: &#x27;&#x27;, &#x27;cronjob&#x27;: False, &#x27;numthreads&#x27;: None, &#x27;quiet&#x27;: False, &#x27;import_models&#x27;: False, &#x27;timeout&#x27;: 10, &#x27;plain&#x27;: False, &#x27;nobanner&#x27;: False}&gt;</div></td></tr><tr><td style="font-weight:bold;vertical-align:top;">db_sessions</td><td style="vertical-align:top;">:</td><td><div>set([])</div></td></tr><tr><td style="font-weight:bold;vertical-align:top;">debugging</td><td style="vertical-align:top;">:</td><td><div>True</div></td></tr><tr><td style="font-weight:bold;vertical-align:top;">gluon_parent</td><td style="vertical-align:top;">:</td><td><div>/home/marian/web2py</div></td></tr><tr><td style="font-weight:bold;vertical-align:top;">is_jython</td><td style="vertical-align:top;">:</td><td><div>False</div></td></tr><tr><td style="font-weight:bold;vertical-align:top;">is_pypy</td><td style="vertical-align:top;">:</td><td><div>False</div></td></tr><tr><td style="font-weight:bold;vertical-align:top;">is_source</td><td style="vertical-align:top;">:</td><td><div>True</div></td></tr><tr><td style="font-weight:bold;vertical-align:top;">local_hosts</td><td style="vertical-align:top;">:</td><td><div><table><tr><td><div>::1</div></td></tr><tr><td><div>127.0.1.1</div></td></tr><tr><td><div>::ffff:127.0.0.1</div></td></tr><tr><td><div>127.0.0.1</div></td></tr><tr><td><div>marian-GA-MA770T-UD3</div></td></tr></table></div></td></tr><tr><td style="font-weight:bold;vertical-align:top;">web2py_version</td><td style="vertical-align:top;">:</td><td><div>2.13.3-stable+timestamp.2015.12.24.08.08.22</div></td></tr></table></div></td></tr><tr><td style="font-weight:bold;vertical-align:top;">is_https</td><td style="vertical-align:top;">:</td><td><div>False</div></td></tr><tr><td style="font-weight:bold;vertical-align:top;">is_local</td><td style="vertical-align:top;">:</td><td><div>True</div></td></tr><tr><td style="font-weight:bold;vertical-align:top;">is_restful</td><td style="vertical-align:top;">:</td><td><div>False</div></td></tr><tr><td style="font-weight:bold;vertical-align:top;">is_scheduler</td><td style="vertical-align:top;">:</td><td><div>False</div></td></tr><tr><td style="font-weight:bold;vertical-align:top;">is_shell</td><td style="vertical-align:top;">:</td><td><div>False</div></td></tr><tr><td style="font-weight:bold;vertical-align:top;">now</td><td style="vertical-align:top;">:</td><td><div>datetime.datetime(2016, 2, 8, 0, 7, 17, 496826)</div></td></tr><tr><td style="font-weight:bold;vertical-align:top;">raw_args</td><td style="vertical-align:top;">:</td><td><div>expediente/movimiento.expediente_id/3/edit/movimiento/109</div></td></tr><tr><td style="font-weight:bold;vertical-align:top;">raw_extension</td><td style="vertical-align:top;">:</td><td><div>None</div></td></tr><tr><td style="font-weight:bold;vertical-align:top;">url</td><td style="vertical-align:top;">:</td><td><div>/PyDoctor/expedientes/index/expediente/movimiento.expediente_id/3/edit/movimiento/109</div></td></tr><tr><td style="font-weight:bold;vertical-align:top;">utcnow</td><td style="vertical-align:top;">:</td><td><div>datetime.datetime(2016, 2, 8, 3, 7, 17, 496854)</div></td></tr><tr><td style="font-weight:bold;vertical-align:top;">wsgi</td><td style="vertical-align:top;">:</td><td><div>&lt;gluon.main.LazyWSGI object at 0x7f5caad43f10&gt;</div></td></tr></table></div>'
tRp58
sS'frames'
p59
(lp60
(dp61
S'file'
p62
S'/home/marian/web2py/gluon/restricted.py'
p63
sS'dump'
p64
(dp65
S'environment'
p66
S"{'A': <class 'gluon.html.A'>, 'ANY_OF': <class 'gluon.validators.ANY_OF'>, 'ASSIGNJS': <function ASSIGNJS>, 'AppConfig': <function AppConfig>, 'Auth': <class 'gluon.tools.Auth'>, 'B': <class 'gluon.html.B'>, 'BEAUTIFY': <class 'gluon.html.BEAUTIFY'>, 'BODY': <class 'gluon.html.BODY'>, 'BR': <class 'gluon.html.BR'>, 'BUTTON': <class 'gluon.html.BUTTON'>, ...}"
p67
sS'ccode'
p68
S'<code object <module> at 0x7f5ca96b3330, file "/...ons/PyDoctor/controllers/expedientes.py", line 4>'
p69
ssS'lnum'
p70
I227
sS'lines'
p71
(dp72
I224
S'            ccode = code'
p73
sI225
S'        else:'
p74
sI226
S'            ccode = compile2(code, layer)'
p75
sI227
S'        exec ccode in environment'
p76
sI228
S'    except HTTP:'
p77
sI229
S'        raise'
p78
sI230
S'    except RestrictedError:'
p79
sI231
S'        # do not encapsulate (obfuscate) the original RestrictedError'
p80
sI222
S'    try:'
p81
sI223
S'        if isinstance(code, types.CodeType):'
p82
ssS'call'
p83
S"(code='# -*- coding: utf-8 -*-\\n# try something like\\n\\nli...e=expte)\\n\\nresponse._vars=response._caller(index)\\n', environment={'A': <class 'gluon.html.A'>, 'ANY_OF': <class 'gluon.validators.ANY_OF'>, 'ASSIGNJS': <function ASSIGNJS>, 'AppConfig': <function AppConfig>, 'Auth': <class 'gluon.tools.Auth'>, 'B': <class 'gluon.html.B'>, 'BEAUTIFY': <class 'gluon.html.BEAUTIFY'>, 'BODY': <class 'gluon.html.BODY'>, 'BR': <class 'gluon.html.BR'>, 'BUTTON': <class 'gluon.html.BUTTON'>, ...}, layer='/home/marian/web2py/applications/PyDoctor/controllers/expedientes.py')"
p84
sS'func'
p85
S'restricted'
p86
sa(dp87
g62
S'/home/marian/web2py/applications/PyDoctor/controllers/expedientes.py'
p88
sg64
(dp89
sg70
I64
sg71
(dp90
I53
S"    expte= SQLFORM(db.expediente, int(request.args[0]), formstyle='bootstrap', readonly=True)"
p91
sI54
S''
sI55
S"    url=URL('index',args=['expediente','edit','expediente',request.args[0]],user_signature=True)"
p92
sI56
S"    links=[A('Expediente',_href=url, _type='button',_class='btn btn-default')]"
p93
sI57
S'    for k in linked_tables:'
p94
sI58
S"        args=['expediente','%s.expediente_id'%k,request.args[0]]"
p95
sI59
S"        url=URL('index',args=args, user_signature=True)"
p96
sI60
S"        text=SPAN(k.capitalize()+'s',_class='buttontext button')"
p97
sI61
S"        links.append(A(text,_href=url,_type='button',_class='btn btn-default'))"
p98
sI62
S'    return dict(links=links,expte=expte)'
p99
ssg83
S'()'
p100
sg85
S'<module>'
p101
sa(dp102
g62
S'/home/marian/web2py/gluon/globals.py'
p103
sg64
(dp104
S'self'
p105
S'undefined'
p106
sS'f'
S'<function index>'
p107
ssg70
I422
sg71
(dp108
I417
S"        self.flash = ''            # used by the default view layout"
p109
sI418
S'        self.meta = Storage()      # used by web2py_ajax.html'
p110
sI419
S'        self.menu = []             # used by the default view layout'
p111
sI420
S'        self.files = []            # used by web2py_ajax.html'
p112
sI421
S'        self._vars = None'
p113
sI422
S'        self._caller = lambda f: f()'
p114
sI423
S'        self._view_environment = None'
p115
sI424
S'        self._custom_commit = None'
p116
sI425
S'        self._custom_rollback = None'
p117
sI426
S"        self.generic_patterns = ['*']"
p118
ssg83
S'(f=<function index>)'
p119
sg85
S'<lambda>'
p120
sa(dp121
g62
S'/home/marian/web2py/gluon/tools.py'
p122
sg64
(dp123
S'action'
p124
S'<function index>'
p125
sS'a'
S'()'
p126
sS'b'
g45
ssg70
I4228
sg71
(dp127
I4224
S'                if not flag:'
p128
sI4225
S'                    current.session.flash = self.messages.access_denied'
p129
sI4226
S'                    return call_or_redirect('
p130
sI4227
S'                        self.settings.on_failed_authorization)'
p131
sI4228
S'                return action(*a, **b)'
p132
sI4229
S'            f.__doc__ = action.__doc__'
p133
sI4230
S'            f.__name__ = action.__name__'
p134
sI4231
S'            f.__dict__.update(action.__dict__)'
p135
sI4232
S'            return f'
p136
sI4223
S'                    flag = condition'
p137
ssg83
S'(*a=(), **b={})'
p138
sg85
S'f'
sa(dp139
g62
S'/home/marian/web2py/applications/PyDoctor/controllers/expedientes.py'
p140
sg64
(dp141
S'maxtextlengths'
p142
S"{'db.agenda.titulo': 60, 'db.agenda.vencimiento': 15, 'db.expediente.caratula': 60, 'db.expediente.juzgado_id': 45, 'db.expediente.numero': 15, 'db.movimiento.estado': 5, 'db.movimiento.texto': 40, 'db.movimiento.titulo': 40, 'db.parte.caracter': 30, 'db.parte.persona_id': 40}"
p143
ssg70
I49
sg71
(dp144
I44
S'                    linked_tables=linked_tables,'
p145
sI45
S"                    buttons_placement = 'right',"
p146
sI46
S'                    exportclasses=myexport,'
p147
sI47
S'                    advanced_search=False,'
p148
sI48
S'                    maxtextlength=100,'
p149
sI49
S'                    maxtextlengths=maxtextlengths)'
p150
sI50
S'    return locals()'
p151
sI51
S''
sI52
S'def vista_expediente():'
p152
sI53
S"    expte= SQLFORM(db.expediente, int(request.args[0]), formstyle='bootstrap', readonly=True)"
p153
ssg83
S'()'
p154
sg85
S'index'
p155
sa(dp156
g62
S'/home/marian/web2py/gluon/sqlhtml.py'
p157
sg64
(dp158
S'user_signature'
p159
S'True'
p160
sS'kwargs'
p161
S"{'advanced_search': False, 'buttons_placement': 'right', 'exportclasses': {'csv': False, 'csv_with_hidden_cols': False, 'html': False, 'json': False, 'tsv': False, 'tsv_with_hidden_cols': False, 'xml': False}, 'fields': [<pydal.objects.Field object>, <pydal.objects.Field object>, <pydal.objects.Field object>, <pydal.objects.Field object>, <pydal.objects.Field object>, <pydal.objects.Field object>, <pydal.objects.Field object>, <pydal.objects.Field object>, <pydal.objects.Field object>, <pydal.objects.Field object>, <pydal.objects.Field object>, <pydal.objects.Field object>, <pydal.objects.Field object>, <pydal.objects.Field object>, <pydal.objects.Field object>], 'maxtextlength': 100, 'maxtextlengths': {'db.agenda.titulo': 60, 'db.agenda.vencimiento': 15, 'db.expediente.caratula': 60, 'db.expediente.juzgado_id': 45, 'db.expediente.numero': 15, 'db.movimiento.estado': 5, 'db.movimiento.texto': 40, 'db.movimiento.titulo': 40, 'db.parte.caracter': 30, 'db.parte.persona_id': 40}}"
p162
ssg70
I3057
sg71
(dp163
I3052
S'                                A(SPAN(t), cid=request.cid, _href=url('
p164
sI3053
S'                                    args=[args0, row[id_field_name]])))'
p165
sI3054
S'        links += linked'
p166
sI3055
S'        grid = SQLFORM.grid(query, args=request.args[:nargs], links=links,'
p167
sI3056
S'                            links_in_grid=links_in_grid,'
p168
sI3057
S'                            user_signature=user_signature, **kwargs)'
p169
sI3058
S''
sI3059
S'        if isinstance(grid, DIV):'
p170
sI3060
S'            header = table._plural'
p171
sI3061
S'            next = grid.create_form or grid.update_form or grid.view_form'
p172
ssg83
S"(table=<Table movimiento (id,expediente_id,estado,titul...e,created_on,created_by,modified_on,modified_by)>, constraints={'expediente': <Query (expediente.created_by = 2)>}, linked_tables=['movimiento', 'agenda', 'parte'], links=[], links_in_grid=True, args=[], user_signature=True, divider='>', breadcrumbs_class='', **kwargs={'advanced_search': False, 'buttons_placement': 'right', 'exportclasses': {'csv': False, 'csv_with_hidden_cols': False, 'html': False, 'json': False, 'tsv': False, 'tsv_with_hidden_cols': False, 'xml': False}, 'fields': [<pydal.objects.Field object>, <pydal.objects.Field object>, <pydal.objects.Field object>, <pydal.objects.Field object>, <pydal.objects.Field object>, <pydal.objects.Field object>, <pydal.objects.Field object>, <pydal.objects.Field object>, <pydal.objects.Field object>, <pydal.objects.Field object>, <pydal.objects.Field object>, <pydal.objects.Field object>, <pydal.objects.Field object>, <pydal.objects.Field object>, <pydal.objects.Field object>], 'maxtextlength': 100, 'maxtextlengths': {'db.agenda.titulo': 60, 'db.agenda.vencimiento': 15, 'db.expediente.caratula': 60, 'db.expediente.juzgado_id': 45, 'db.expediente.numero': 15, 'db.movimiento.estado': 5, 'db.movimiento.texto': 40, 'db.movimiento.titulo': 40, 'db.parte.caracter': 30, 'db.parte.persona_id': 40}})"
p173
sg85
S'smartgrid'
p174
sa(dp175
g62
S'/home/marian/web2py/gluon/sqlhtml.py'
p176
sg64
(dp177
S'builtinnext'
p178
S'<built-in function next>'
p179
sS'referrer'
p180
S"'/PyDoctor/expedientes/index/expediente/movimient...ignature=ef65dfaf2ae17e3827c2d02273b91c4a8428c4b8'"
p181
ssg70
I2320
sg71
(dp182
I2315
S'            update_form.process('
p183
sI2316
S'                formname=formname,'
p184
sI2317
S'                onvalidation=onvalidation,'
p185
sI2318
S'                onfailure=onfailure,'
p186
sI2319
S'                onsuccess=onupdate,'
p187
sI2320
S'                next=referrer)'
p188
sI2321
S'            res = DIV(buttons(view=details, record=record),'
p189
sI2322
S'                      update_form, formfooter, _class=_class)'
p190
sI2323
S'            res.create_form = create_form'
p191
sI2324
S'            res.update_form = update_form'
p192
ssg83
S"(query=<Query (movimiento.expediente_id = 3)>, fields=[<pydal.objects.Field object>, <pydal.objects.Field object>, <pydal.objects.Field object>, <pydal.objects.Field object>, <pydal.objects.Field object>, <pydal.objects.Field object>, <pydal.objects.Field object>, <pydal.objects.Field object>, <pydal.objects.Field object>, <pydal.objects.Field object>, <pydal.objects.Field object>, <pydal.objects.Field object>, <pydal.objects.Field object>, <pydal.objects.Field object>, <pydal.objects.Field object>, <pydal.objects.Field object>], field_id=<pydal.objects.Field object>, left=None, headers={}, orderby=None, groupby=None, searchable=True, sortable=True, paginate=20, deletable=True, editable=True, details=True, selectable=None, create=True, csv=True, links=[], links_in_grid=True, upload=<function <lambda>>, args=['expediente', 'movimiento.expediente_id', '3'], user_signature=True, maxtextlengths={'db.agenda.titulo': 60, 'db.agenda.vencimiento': 15, 'db.expediente.caratula': 60, 'db.expediente.juzgado_id': 45, 'db.expediente.numero': 15, 'db.movimiento.estado': 5, 'db.movimiento.texto': 40, 'db.movimiento.titulo': 40, 'db.parte.caracter': 30, 'db.parte.persona_id': 40}, maxtextlength=100, onvalidation=None, onfailure=None, oncreate=None, onupdate=None, ondelete=None, sorter_icons=(<gluon.html.XML object>, <gluon.html.XML object>), ui={'button': 'button btn btn-default', 'buttonadd': 'icon plus icon-plus glyphicon glyphicon-plus', 'buttonback': 'icon leftarrow icon-arrow-left glyphicon glyphicon-arrow-left', 'buttondelete': 'icon trash icon-trash glyphicon glyphicon-trash', 'buttonedit': 'icon pen icon-pencil glyphicon glyphicon-pencil', 'buttonexport': 'icon downarrow icon-download glyphicon glyphicon-download', 'buttontable': 'icon rightarrow icon-arrow-right glyphicon glyphicon-arrow-right', 'buttontext': 'buttontext button', 'buttonview': 'icon magnifier icon-zoom-in glyphicon glyphicon-zoom-in', 'content': '', ...}, showbuttontext=True, _class='web2py_grid', formname='web2py_grid', search_widget='default', advanced_search=False, ignore_rw=False, formstyle='bootstrap3_inline', exportclasses={'csv': False, 'csv_with_hidden_cols': False, 'html': False, 'json': False, 'tsv': False, 'tsv_with_hidden_cols': False, 'xml': False}, formargs={}, createargs={}, editargs={}, viewargs={}, selectable_submit_button='Submit', buttons_placement='right', links_placement='right', noconfirm=False, cache_count=None, client_side_delete=False, ignore_common_filters=None, auto_pagination=True, use_cursor=False)"
p193
sg85
S'grid'
p194
sa(dp195
g62
S'/home/marian/web2py/gluon/html.py'
p196
sg64
(dp197
S'self'
p198
S'<gluon.sqlhtml.SQLFORM object>'
p199
sS'self.validate'
p200
S'<bound method SQLFORM.validate of <gluon.sqlhtml.SQLFORM object>>'
p201
sS'kwargs'
p202
S"{'dbio': True, 'formname': 'web2py_grid', 'next': '/PyDoctor/expedientes/index/expediente/movimient...ignature=ef65dfaf2ae17e3827c2d02273b91c4a8428c4b8', 'onfailure': None, 'onsuccess': None, 'onvalidation': None}"
p203
ssg70
I2306
sg71
(dp204
I2304
S"        kwargs['dbio'] = kwargs.get('dbio', True)"
p205
sI2305
S'                                    # necessary for SQLHTML forms'
p206
sI2306
S'        self.validate(**kwargs)'
p207
sI2307
S'        return self'
p208
sI2308
S''
sI2309
S'    REDIRECT_JS = "window.location=\'%s\';return false"'
p209
sI2310
S''
sI2301
S''
sI2302
S''
sI2303
S'        """'
p210
ssg83
S"(self=<gluon.sqlhtml.SQLFORM object>, **kwargs={'dbio': True, 'formname': 'web2py_grid', 'next': '/PyDoctor/expedientes/index/expediente/movimient...ignature=ef65dfaf2ae17e3827c2d02273b91c4a8428c4b8', 'onfailure': None, 'onsuccess': None, 'onvalidation': None})"
p211
sg85
S'process'
p212
sa(dp213
g62
S'/home/marian/web2py/gluon/html.py'
p214
sg64
(dp215
S'self'
p216
S'<gluon.sqlhtml.SQLFORM object>'
p217
sS'self.accepts'
p218
S'<bound method SQLFORM.accepts of <gluon.sqlhtml.SQLFORM object>>'
p219
sS'kwargs'
p220
S"{'dbio': True, 'formname': 'web2py_grid', 'onvalidation': None, 'request_vars': <Storage {'texto': '<p>Abundantly these are conf...7fe', 'estado': 'E', '_formname': 'web2py_grid'}>, 'session': <Storage {'auth': <Storage {'remember_me': False...ature=ef65dfaf2ae17e3827c2d02273b91c4a8428c4b8'}>}"
p221
ssg70
I2243
sg71
(dp222
I2240
S'            if key in kwargs:'
p223
sI2241
S'                del kwargs[key]'
p224
sI2242
S''
sI2243
S'        if self.accepts(**kwargs):'
p225
sI2244
S"            if onsuccess == 'flash':"
p226
sI2245
S'                if next:'
p227
sI2246
S'                    current.session.flash = message_onsuccess'
p228
sI2247
S'                else:'
p229
sI2238
S"        for key in ('message_onsuccess', 'message_onfailure', 'onsuccess',"
p230
sI2239
S"                    'onfailure', 'next', 'message_onchange', 'onchange'):"
p231
ssg83
S"(self=<gluon.sqlhtml.SQLFORM object>, **kwargs={'dbio': True, 'formname': 'web2py_grid', 'onvalidation': None, 'request_vars': <Storage {'texto': '<p>Abundantly these are conf...7fe', 'estado': 'E', '_formname': 'web2py_grid'}>, 'session': <Storage {'auth': <Storage {'remember_me': False...ature=ef65dfaf2ae17e3827c2d02273b91c4a8428c4b8'}>})"
p232
sg85
S'validate'
p233
sa(dp234
g62
S'/home/marian/web2py/gluon/sqlhtml.py'
p235
sg64
(dp236
S').update'
p237
g106
sS'self'
p238
S'<gluon.sqlhtml.SQLFORM object>'
p239
sS'self.id_field_name'
p240
S"'id'"
p241
sS'fields'
p242
S"{'archivo': '', 'created_by': None, 'created_on': datetime.datetime(2016, 2, 5, 23, 52), 'estado': 'E', 'expediente_id': 3L, 'id': 109L, 'is_active': True, 'texto': '<p>Abundantly these are confirmed as pieces of a...been christened electrons has been visible.</p>\\r\\n', 'titulo': 'Algun titulo con sentido'}"
p243
ssg70
I1720
sg71
(dp244
I1715
S'            elif self.table._db._uri:'
p245
sI1716
S'                if record_id:'
p246
sI1717
S'                    self.vars.id = self.record[self.id_field_name]'
p247
sI1718
S'                    if fields:'
p248
sI1719
S'                        self.table._db(self.table._id == self.record['
p249
sI1720
S'                                       self.id_field_name]).update(**fields)'
p250
sI1721
S'                else:'
p251
sI1722
S'                    self.vars.id = self.table.insert(**fields)'
p252
sI1723
S''
sI1724
S'        self.accepted = ret'
p253
ssg83
S"(self=<gluon.sqlhtml.SQLFORM object>, request_vars=<Storage {'texto': '<p>Abundantly these are conf...7fe', 'estado': 'E', '_formname': 'web2py_grid'}>, session=<Storage {'auth': <Storage {'remember_me': False...ature=ef65dfaf2ae17e3827c2d02273b91c4a8428c4b8'}>, formname='web2py_grid', keepvalues=True, onvalidation=None, dbio=True, hideerror=False, detect_record_change=False, **kwargs={})"
p254
sg85
S'accepts'
p255
sa(dp256
g62
S'/home/marian/web2py/gluon/packages/dal/pydal/objects.py'
p257
sg64
(dp258
S'update_fields'
p259
S"{'archivo': '', 'created_by': None, 'created_on': datetime.datetime(2016, 2, 5, 23, 52), 'estado': 'E', 'expediente_id': 3L, 'id': 109L, 'is_active': True, 'modified_by': <function lazy_user>, 'modified_on': datetime.datetime(2016, 2, 8, 0, 7, 17, 496826), 'texto': '<p>Abundantly these are confirmed as pieces of a...been christened electrons has been visible.</p>\\r\\n', ...}"
p260
sS'f'
S'<function <lambda>>'
p261
sS'self'
p262
S'<Set (movimiento.id = 109)>'
p263
sS'ret'
p264
S'1'
sS'table'
p265
S'<Table movimiento (id,expediente_id,estado,titul...e,created_on,created_by,modified_on,modified_by)>'
p266
sS'table._after_update'
p267
S'[<function <lambda>>]'
p268
ssg70
I2060
sg71
(dp269
I2055
S'            return 0'
p270
sI2056
S'        fields = table._listify(update_fields,update=True)'
p271
sI2057
S'        if not fields:'
p272
sI2058
S'            raise SyntaxError("No fields to update")'
p273
sI2059
S'        ret = db._adapter.update("%s" % table._tablename,self.query,fields)'
p274
sI2060
S'        ret and [f(self,update_fields) for f in table._after_update]'
p275
sI2061
S'        return ret'
p276
sI2062
S''
sI2063
S'    def update_naive(self, **update_fields):'
p277
sI2064
S'        """'
p278
ssg83
S"(self=<Set (movimiento.id = 109)>, **update_fields={'archivo': '', 'created_by': None, 'created_on': datetime.datetime(2016, 2, 5, 23, 52), 'estado': 'E', 'expediente_id': 3L, 'id': 109L, 'is_active': True, 'modified_by': <function lazy_user>, 'modified_on': datetime.datetime(2016, 2, 8, 0, 7, 17, 496826), 'texto': '<p>Abundantly these are confirmed as pieces of a...been christened electrons has been visible.</p>\\r\\n', ...})"
p279
sg85
S'update'
p280
sa(dp281
g62
S'/home/marian/web2py/applications/PyDoctor/models/db_pydoctor.py'
p282
sg64
(dp283
S's.id'
p284
g106
sS'f'
S"{'archivo': '', 'created_by': None, 'created_on': datetime.datetime(2016, 2, 5, 23, 52), 'estado': 'E', 'expediente_id': 3L, 'id': 109L, 'is_active': True, 'modified_by': <function lazy_user>, 'modified_on': datetime.datetime(2016, 2, 8, 0, 7, 17, 496826), 'texto': '<p>Abundantly these are confirmed as pieces of a...been christened electrons has been visible.</p>\\r\\n', ...}"
p285
sS'db.movimiento'
p286
S'<Table movimiento (id,expediente_id,estado,titul...e,created_on,created_by,modified_on,modified_by)>'
p287
sS'global changed_expediente'
p288
S'<function changed_expediente>'
p289
sS's'
S'<Set (movimiento.id = 109)>'
p290
sS'db.movimiento._after_update.append'
p291
S'<built-in method append of list object>'
p292
sS'global db'
p293
S'<DAL uri="sqlite://storage2.sqlite">'
p294
sS'db.movimiento._after_update'
p295
S'[<function <lambda>>]'
p296
ssg70
I243
sg71
(dp297
I235
S''
sI236
S'#para mantener los ultimos expedientes tocados'
p298
sI237
S'def changed_expediente(n):'
p299
sI238
S'    if n is None:'
p300
sI239
S'        n = set.id'
p301
sI240
S'    expediente[n].changed_at=request.now'
p302
sI241
S''
sI242
S'db.movimiento._after_insert.append(lambda f,id: changed_expediente(f.expediente_id))'
p303
sI243
S'db.movimiento._after_update.append(lambda s,f: changed_expediente(s.id))'
p304
sI244
S'db.movimiento._after_delete.append(lambda s: changed_expediente(s.id))'
p305
ssg83
S"(s=<Set (movimiento.id = 109)>, f={'archivo': '', 'created_by': None, 'created_on': datetime.datetime(2016, 2, 5, 23, 52), 'estado': 'E', 'expediente_id': 3L, 'id': 109L, 'is_active': True, 'modified_by': <function lazy_user>, 'modified_on': datetime.datetime(2016, 2, 8, 0, 7, 17, 496826), 'texto': '<p>Abundantly these are confirmed as pieces of a...been christened electrons has been visible.</p>\\r\\n', ...})"
p306
sg85
g120
sasS'pyver'
p307
S'Python 2.7.10: /usr/bin/python (prefix: /usr)'
p308
sS'session'
p309
g57
(S's\xe4\x08\x00\x00<div><table><tr><td style="font-weight:bold;vertical-align:top;">auth</td><td style="vertical-align:top;">:</td><td><div><table><tr><td style="font-weight:bold;vertical-align:top;">expiration</td><td style="vertical-align:top;">:</td><td><div>3600</div></td></tr><tr><td style="font-weight:bold;vertical-align:top;">hmac_key</td><td style="vertical-align:top;">:</td><td><div>a95298de-6c5d-4d7d-9e02-13f0af6dd997</div></td></tr><tr><td style="font-weight:bold;vertical-align:top;">last_visit</td><td style="vertical-align:top;">:</td><td><div>datetime.datetime(2016, 2, 8, 0, 3, 22, 188768)</div></td></tr><tr><td style="font-weight:bold;vertical-align:top;">remember_me</td><td style="vertical-align:top;">:</td><td><div>False</div></td></tr><tr><td style="font-weight:bold;vertical-align:top;">user</td><td style="vertical-align:top;">:</td><td><div><table><tr><td style="font-weight:bold;vertical-align:top;">email</td><td style="vertical-align:top;">:</td><td><div>egomez@users.com</div></td></tr><tr><td style="font-weight:bold;vertical-align:top;">first_name</td><td style="vertical-align:top;">:</td><td><div>Elena</div></td></tr><tr><td style="font-weight:bold;vertical-align:top;">id</td><td style="vertical-align:top;">:</td><td><div>2L</div></td></tr><tr><td style="font-weight:bold;vertical-align:top;">last_name</td><td style="vertical-align:top;">:</td><td><div>Gomez</div></td></tr><tr><td style="font-weight:bold;vertical-align:top;">registration_id</td><td style="vertical-align:top;">:</td><td><div></div></td></tr><tr><td style="font-weight:bold;vertical-align:top;">registration_key</td><td style="vertical-align:top;">:</td><td><div></div></td></tr><tr><td style="font-weight:bold;vertical-align:top;">reset_password_key</td><td style="vertical-align:top;">:</td><td><div></div></td></tr></table></div></td></tr><tr><td style="font-weight:bold;vertical-align:top;">user_groups</td><td style="vertical-align:top;">:</td><td><div><table><tr><td style="font-weight:bold;vertical-align:top;">2</td><td style="vertical-align:top;">:</td><td><div>user_2</div></td></tr></table></div></td></tr></table></div></td></tr><tr><td style="font-weight:bold;vertical-align:top;">flash</td><td style="vertical-align:top;">:</td><td><div>None</div></td></tr></table></div>'
tRp310
sS'etype'
p311
S"<type 'exceptions.AttributeError'>"
p312
sS'date'
p313
S'Mon Feb  8 00:07:17 2016'
p314
sS'response'
p315
g57
(S's>#\x00\x00<div><table><tr><td style="font-weight:bold;vertical-align:top;">body</td><td style="vertical-align:top;">:</td><td><div>&lt;cStringIO.StringO object at 0x7f5cab63ba78&gt;</div></td></tr><tr><td style="font-weight:bold;vertical-align:top;">cookies</td><td style="vertical-align:top;">:</td><td><div><table><tr><td style="font-weight:bold;vertical-align:top;">session_id_pydoctor</td><td style="vertical-align:top;">:</td><td><div>127.0.0.1-90df6e8a-18ac-42ec-8964-09cb94aef51d<table><tr><td style="font-weight:bold;vertical-align:top;">comment</td><td style="vertical-align:top;">:</td><td><div></div></td></tr><tr><td style="font-weight:bold;vertical-align:top;">domain</td><td style="vertical-align:top;">:</td><td><div></div></td></tr><tr><td style="font-weight:bold;vertical-align:top;">expires</td><td style="vertical-align:top;">:</td><td><div></div></td></tr><tr><td style="font-weight:bold;vertical-align:top;">httponly</td><td style="vertical-align:top;">:</td><td><div></div></td></tr><tr><td style="font-weight:bold;vertical-align:top;">max-age</td><td style="vertical-align:top;">:</td><td><div></div></td></tr><tr><td style="font-weight:bold;vertical-align:top;">path</td><td style="vertical-align:top;">:</td><td><div>/</div></td></tr><tr><td style="font-weight:bold;vertical-align:top;">secure</td><td style="vertical-align:top;">:</td><td><div></div></td></tr><tr><td style="font-weight:bold;vertical-align:top;">version</td><td style="vertical-align:top;">:</td><td><div></div></td></tr></table></div></td></tr></table></div></td></tr><tr><td style="font-weight:bold;vertical-align:top;">delimiters</td><td style="vertical-align:top;">:</td><td><div><table><tr><td><div>{{</div></td></tr><tr><td><div>}}</div></td></tr></table></div></td></tr><tr><td style="font-weight:bold;vertical-align:top;">files</td><td style="vertical-align:top;">:</td><td><div><table></table></div></td></tr><tr><td style="font-weight:bold;vertical-align:top;">flash</td><td style="vertical-align:top;">:</td><td><div></div></td></tr><tr><td style="font-weight:bold;vertical-align:top;">form_label_separator</td><td style="vertical-align:top;">:</td><td><div></div></td></tr><tr><td style="font-weight:bold;vertical-align:top;">formstyle</td><td style="vertical-align:top;">:</td><td><div>bootstrap3_inline</div></td></tr><tr><td style="font-weight:bold;vertical-align:top;">generic_patterns</td><td style="vertical-align:top;">:</td><td><div><table><tr><td><div>*</div></td></tr></table></div></td></tr><tr><td style="font-weight:bold;vertical-align:top;">google_analytics_id</td><td style="vertical-align:top;">:</td><td><div>None</div></td></tr><tr><td style="font-weight:bold;vertical-align:top;">headers</td><td style="vertical-align:top;">:</td><td><div><table><tr><td style="font-weight:bold;vertical-align:top;">X-Powered-By</td><td style="vertical-align:top;">:</td><td><div>web2py</div></td></tr></table></div></td></tr><tr><td style="font-weight:bold;vertical-align:top;">logo</td><td style="vertical-align:top;">:</td><td><div><a class="navbar-brand" id="web2py-logo"><b><span>Py</span>Doctor</b>&trade;&nbsp;</a></div></td></tr><tr><td style="font-weight:bold;vertical-align:top;">menu</td><td style="vertical-align:top;">:</td><td><div><table><tr><td><div><table><tr><td><div>Inicio</div></td></tr><tr><td><div>False</div></td></tr><tr><td><div>/PyDoctor/default/index</div></td></tr><tr><td><div><table></table></div></td></tr></table></div></td></tr><tr><td><div><table><tr><td><div>Expedientes</div></td></tr><tr><td><div>False</div></td></tr><tr><td><div>/PyDoctor/expedientes/index</div></td></tr></table></div></td></tr><tr><td><div><table><tr><td><div>Contactos</div></td></tr><tr><td><div>False</div></td></tr><tr><td><div>/PyDoctor/contactos/index</div></td></tr></table></div></td></tr><tr><td><div><table><tr><td><div>Calendario</div></td></tr><tr><td><div>False</div></td></tr><tr><td><div>/PyDoctor/agenda/calendar</div></td></tr></table></div></td></tr><tr><td><div><table><tr><td><div>Agenda</div></td></tr><tr><td><div>False</div></td></tr><tr><td><div>/PyDoctor/agenda/agenda</div></td></tr></table></div></td></tr><tr><td><div><table><tr><td><div>Juzgados</div></td></tr><tr><td><div>False</div></td></tr><tr><td><div>/PyDoctor/other_tables/juzgados</div></td></tr></table></div></td></tr><tr><td><div><table><tr><td><div>Tablas</div></td></tr><tr><td><div>False</div></td></tr><tr><td><div>#</div></td></tr><tr><td><div><table><tr><td><div><table><tr><td><div>Instancias</div></td></tr><tr><td><div>False</div></td></tr><tr><td><div>/PyDoctor/other_tables/instancias</div></td></tr></table></div></td></tr><tr><td><div><table><tr><td><div>Fueros</div></td></tr><tr><td><div>False</div></td></tr><tr><td><div>/PyDoctor/other_tables/fueros</div></td></tr></table></div></td></tr></table></div></td></tr></table></div></td></tr></table></div></td></tr><tr><td style="font-weight:bold;vertical-align:top;">meta</td><td style="vertical-align:top;">:</td><td><div><table><tr><td style="font-weight:bold;vertical-align:top;">author</td><td style="vertical-align:top;">:</td><td><div>Your Name &lt;you@example.com&gt;</div></td></tr><tr><td style="font-weight:bold;vertical-align:top;">description</td><td style="vertical-align:top;">:</td><td><div>a cool new app</div></td></tr><tr><td style="font-weight:bold;vertical-align:top;">generator</td><td style="vertical-align:top;">:</td><td><div>Web2py Web Framework</div></td></tr><tr><td style="font-weight:bold;vertical-align:top;">keywords</td><td style="vertical-align:top;">:</td><td><div>web2py, python, framework</div></td></tr></table></div></td></tr><tr><td style="font-weight:bold;vertical-align:top;">models_to_run</td><td style="vertical-align:top;">:</td><td><div><table><tr><td><div>^\\w+\\.py$</div></td></tr><tr><td><div>^expedientes/\\w+\\.py$</div></td></tr><tr><td><div>^expedientes/index/\\w+\\.py$</div></td></tr></table></div></td></tr><tr><td style="font-weight:bold;vertical-align:top;">postprocessing</td><td style="vertical-align:top;">:</td><td><div><table></table></div></td></tr><tr><td style="font-weight:bold;vertical-align:top;">session_client</td><td style="vertical-align:top;">:</td><td><div>127.0.0.1</div></td></tr><tr><td style="font-weight:bold;vertical-align:top;">session_cookie_compression_level</td><td style="vertical-align:top;">:</td><td><div>None</div></td></tr><tr><td style="font-weight:bold;vertical-align:top;">session_cookie_expires</td><td style="vertical-align:top;">:</td><td><div>None</div></td></tr><tr><td style="font-weight:bold;vertical-align:top;">session_cookie_key</td><td style="vertical-align:top;">:</td><td><div>None</div></td></tr><tr><td style="font-weight:bold;vertical-align:top;">session_data_name</td><td style="vertical-align:top;">:</td><td><div>session_data_pydoctor</div></td></tr><tr><td style="font-weight:bold;vertical-align:top;">session_file</td><td style="vertical-align:top;">:</td><td><div>&lt;open file &#x27;/home/marian/web2py/applications/PyDoctor/sessions/13c/1f0/127.0.0.1-90df6e8a-18ac-42ec-8964-09cb94aef51d&#x27;, mode &#x27;rb+&#x27; at 0x7f5caac18030&gt;</div></td></tr><tr><td style="font-weight:bold;vertical-align:top;">session_filename</td><td style="vertical-align:top;">:</td><td><div>/home/marian/web2py/applications/PyDoctor/sessions/127.0.0.1-90df6e8a-18ac-42ec-8964-09cb94aef51d</div></td></tr><tr><td style="font-weight:bold;vertical-align:top;">session_hash</td><td style="vertical-align:top;">:</td><td><div>4d72bd1191118046f02c237336f13b69</div></td></tr><tr><td style="font-weight:bold;vertical-align:top;">session_id</td><td style="vertical-align:top;">:</td><td><div>127.0.0.1-90df6e8a-18ac-42ec-8964-09cb94aef51d</div></td></tr><tr><td style="font-weight:bold;vertical-align:top;">session_id_name</td><td style="vertical-align:top;">:</td><td><div>session_id_pydoctor</div></td></tr><tr><td style="font-weight:bold;vertical-align:top;">session_locked</td><td style="vertical-align:top;">:</td><td><div>True</div></td></tr><tr><td style="font-weight:bold;vertical-align:top;">session_masterapp</td><td style="vertical-align:top;">:</td><td><div>PyDoctor</div></td></tr><tr><td style="font-weight:bold;vertical-align:top;">session_new</td><td style="vertical-align:top;">:</td><td><div>False</div></td></tr><tr><td style="font-weight:bold;vertical-align:top;">session_storage_type</td><td style="vertical-align:top;">:</td><td><div>file</div></td></tr><tr><td style="font-weight:bold;vertical-align:top;">status</td><td style="vertical-align:top;">:</td><td><div>200</div></td></tr><tr><td style="font-weight:bold;vertical-align:top;">subtitle</td><td style="vertical-align:top;">:</td><td><div>Sistema de gesti\xc3\xb3n para estudios jur\xc3\xaddicos</div></td></tr><tr><td style="font-weight:bold;vertical-align:top;">title</td><td style="vertical-align:top;">:</td><td><div>Pydoctor</div></td></tr><tr><td style="font-weight:bold;vertical-align:top;">view</td><td style="vertical-align:top;">:</td><td><div>expedientes/index.html</div></td></tr></table></div>'
tRp316
sS'locals'
p317
(dp318
S's'
S'<Set (movimiento.id = 109)>'
p319
sS'f'
S"{'archivo': '', 'created_by': None, 'created_on': datetime.datetime(2016, 2, 5, 23, 52), 'estado': 'E', 'expediente_id': 3L, 'id': 109L, 'is_active': True, 'modified_by': <function lazy_user>, 'modified_on': datetime.datetime(2016, 2, 8, 0, 7, 17, 496826), 'texto': '<p>Abundantly these are confirmed as pieces of a...been christened electrons has been visible.</p>\\r\\n', ...}"
p320
sssS'traceback'
p321
S'Traceback (most recent call last):\n  File "/home/marian/web2py/gluon/restricted.py", line 227, in restricted\n    exec ccode in environment\n  File "/home/marian/web2py/applications/PyDoctor/controllers/expedientes.py", line 64, in <module>\n  File "/home/marian/web2py/gluon/globals.py", line 422, in <lambda>\n    self._caller = lambda f: f()\n  File "/home/marian/web2py/gluon/tools.py", line 4228, in f\n    return action(*a, **b)\n  File "/home/marian/web2py/applications/PyDoctor/controllers/expedientes.py", line 49, in index\n    maxtextlengths=maxtextlengths)\n  File "/home/marian/web2py/gluon/sqlhtml.py", line 3057, in smartgrid\n    user_signature=user_signature, **kwargs)\n  File "/home/marian/web2py/gluon/sqlhtml.py", line 2320, in grid\n    next=referrer)\n  File "/home/marian/web2py/gluon/html.py", line 2306, in process\n    self.validate(**kwargs)\n  File "/home/marian/web2py/gluon/html.py", line 2243, in validate\n    if self.accepts(**kwargs):\n  File "/home/marian/web2py/gluon/sqlhtml.py", line 1720, in accepts\n    self.id_field_name]).update(**fields)\n  File "/home/marian/web2py/gluon/packages/dal/pydal/objects.py", line 2060, in update\n    ret and [f(self,update_fields) for f in table._after_update]\n  File "/home/marian/web2py/applications/PyDoctor/models/db_pydoctor.py", line 243, in <lambda>\n    db.movimiento._after_update.append(lambda s,f: changed_expediente(s.id))\nAttributeError: \'Set\' object has no attribute \'id\'\n'
p322
s.